
demo.elf:     file format elf32-littleriscv

Sections:
Idx Name          Size      VMA       LMA       File off  Algn
  0 .text         00000140  00000000  00000000  00000054  2**2
                  CONTENTS, ALLOC, LOAD, CODE
  1 .rodata       00000000  00000140  00000140  00000194  2**0
                  ALLOC
  2 .data         00000000  10000000  10000000  00000194  2**0
                  CONTENTS, ALLOC, LOAD, DATA
  3 .bss          00000000  10000000  10000000  00000000  2**0
                  ALLOC
  4 .riscv.attributes 00000025  00000000  00000000  00000194  2**0
                  CONTENTS, READONLY
  5 .comment      0000000f  00000000  00000000  000001b9  2**0
                  CONTENTS, READONLY
  6 .debug_line   00000633  00000000  00000000  000001c8  2**0
                  CONTENTS, READONLY, DEBUGGING, OCTETS
  7 .debug_info   000001a6  00000000  00000000  000007fb  2**0
                  CONTENTS, READONLY, DEBUGGING, OCTETS
  8 .debug_abbrev 0000010e  00000000  00000000  000009a1  2**0
                  CONTENTS, READONLY, DEBUGGING, OCTETS
  9 .debug_aranges 00000048  00000000  00000000  00000ab0  2**3
                  CONTENTS, READONLY, DEBUGGING, OCTETS
 10 .debug_str    000050ee  00000000  00000000  00000af8  2**0
                  CONTENTS, READONLY, DEBUGGING, OCTETS
 11 .debug_loc    00000044  00000000  00000000  00005be6  2**0
                  CONTENTS, READONLY, DEBUGGING, OCTETS
 12 .debug_ranges 00000060  00000000  00000000  00005c2a  2**0
                  CONTENTS, READONLY, DEBUGGING, OCTETS
 13 .debug_macro  000010af  00000000  00000000  00005c8a  2**0
                  CONTENTS, READONLY, DEBUGGING, OCTETS

Disassembly of section .text:

00000000 <_ftext>:
.global main
.global isr
.global _start

_start:
  j crt_init
   0:	0b00006f          	j	b0 <crt_init>
  nop
   4:	00000013          	nop
  nop
   8:	00000013          	nop
  nop
   c:	00000013          	nop
  nop
  10:	00000013          	nop
  nop
  14:	00000013          	nop
  nop
  18:	00000013          	nop
  nop
  1c:	00000013          	nop

00000020 <trap_entry>:

.global  trap_entry
trap_entry:
  sw x1,  - 1*4(sp)
  20:	fe112e23          	sw	ra,-4(sp)
  sw x5,  - 2*4(sp)
  24:	fe512c23          	sw	t0,-8(sp)
  sw x6,  - 3*4(sp)
  28:	fe612a23          	sw	t1,-12(sp)
  sw x7,  - 4*4(sp)
  2c:	fe712823          	sw	t2,-16(sp)
  sw x10, - 5*4(sp)
  30:	fea12623          	sw	a0,-20(sp)
  sw x11, - 6*4(sp)
  34:	feb12423          	sw	a1,-24(sp)
  sw x12, - 7*4(sp)
  38:	fec12223          	sw	a2,-28(sp)
  sw x13, - 8*4(sp)
  3c:	fed12023          	sw	a3,-32(sp)
  sw x14, - 9*4(sp)
  40:	fce12e23          	sw	a4,-36(sp)
  sw x15, -10*4(sp)
  44:	fcf12c23          	sw	a5,-40(sp)
  sw x16, -11*4(sp)
  48:	fd012a23          	sw	a6,-44(sp)
  sw x17, -12*4(sp)
  4c:	fd112823          	sw	a7,-48(sp)
  sw x28, -13*4(sp)
  50:	fdc12623          	sw	t3,-52(sp)
  sw x29, -14*4(sp)
  54:	fdd12423          	sw	t4,-56(sp)
  sw x30, -15*4(sp)
  58:	fde12223          	sw	t5,-60(sp)
  sw x31, -16*4(sp)
  5c:	fdf12023          	sw	t6,-64(sp)
  addi sp,sp,-16*4
  60:	fc010113          	addi	sp,sp,-64
  call isr
  64:	0c0000ef          	jal	ra,124 <isr>
  lw x1 , 15*4(sp)
  68:	03c12083          	lw	ra,60(sp)
  lw x5,  14*4(sp)
  6c:	03812283          	lw	t0,56(sp)
  lw x6,  13*4(sp)
  70:	03412303          	lw	t1,52(sp)
  lw x7,  12*4(sp)
  74:	03012383          	lw	t2,48(sp)
  lw x10, 11*4(sp)
  78:	02c12503          	lw	a0,44(sp)
  lw x11, 10*4(sp)
  7c:	02812583          	lw	a1,40(sp)
  lw x12,  9*4(sp)
  80:	02412603          	lw	a2,36(sp)
  lw x13,  8*4(sp)
  84:	02012683          	lw	a3,32(sp)
  lw x14,  7*4(sp)
  88:	01c12703          	lw	a4,28(sp)
  lw x15,  6*4(sp)
  8c:	01812783          	lw	a5,24(sp)
  lw x16,  5*4(sp)
  90:	01412803          	lw	a6,20(sp)
  lw x17,  4*4(sp)
  94:	01012883          	lw	a7,16(sp)
  lw x28,  3*4(sp)
  98:	00c12e03          	lw	t3,12(sp)
  lw x29,  2*4(sp)
  9c:	00812e83          	lw	t4,8(sp)
  lw x30,  1*4(sp)
  a0:	00412f03          	lw	t5,4(sp)
  lw x31,  0*4(sp)
  a4:	00012f83          	lw	t6,0(sp)
  addi sp,sp,16*4
  a8:	04010113          	addi	sp,sp,64
  mret
  ac:	30200073          	mret

000000b0 <crt_init>:
  .text


crt_init:
  la sp, _fstack
  b0:	10008117          	auipc	sp,0x10008
  b4:	f5010113          	addi	sp,sp,-176 # 10008000 <_fstack>
  la a0, trap_entry
  b8:	00000517          	auipc	a0,0x0
  bc:	f6850513          	addi	a0,a0,-152 # 20 <trap_entry>
  csrw mtvec, a0
  c0:	30551073          	csrw	mtvec,a0

000000c4 <data_init>:

data_init:
  la a0, _fdata
  c4:	10000517          	auipc	a0,0x10000
  c8:	f3c50513          	addi	a0,a0,-196 # 10000000 <_ebss>
  la a1, _edata
  cc:	10000597          	auipc	a1,0x10000
  d0:	f3458593          	addi	a1,a1,-204 # 10000000 <_ebss>
  la a2, _fdata_rom
  d4:	14000613          	li	a2,320

000000d8 <data_loop>:
data_loop:
  beq a0,a1,data_done
  d8:	00b50c63          	beq	a0,a1,f0 <bss_init>
  lw a3,0(a2)
  dc:	00062683          	lw	a3,0(a2)
  sw a3,0(a0)
  e0:	00d52023          	sw	a3,0(a0)
  add a0,a0,4
  e4:	00450513          	addi	a0,a0,4
  add a2,a2,4
  e8:	00460613          	addi	a2,a2,4
  j data_loop
  ec:	fedff06f          	j	d8 <data_loop>

000000f0 <bss_init>:
data_done:

bss_init:
  la a0, _fbss
  f0:	10000517          	auipc	a0,0x10000
  f4:	f1050513          	addi	a0,a0,-240 # 10000000 <_ebss>
  la a1, _ebss
  f8:	10000597          	auipc	a1,0x10000
  fc:	f0858593          	addi	a1,a1,-248 # 10000000 <_ebss>

00000100 <bss_loop>:
bss_loop:
  beq a0,a1,bss_done
 100:	00b50863          	beq	a0,a1,110 <bss_done>
  sw zero,0(a0)
 104:	00052023          	sw	zero,0(a0)
  add a0,a0,4
 108:	00450513          	addi	a0,a0,4
  j bss_loop
 10c:	ff5ff06f          	j	100 <bss_loop>

00000110 <bss_done>:
bss_done:

  li a0, 0x880  //880 enable timer + external interrupt sources (until mstatus.MIE is set, they will never trigger an interrupt)
 110:	00001537          	lui	a0,0x1
 114:	88050513          	addi	a0,a0,-1920 # 880 <_etext+0x740>
  csrw mie,a0
 118:	30451073          	csrw	mie,a0

  call main
 11c:	00c000ef          	jal	ra,128 <main>

00000120 <infinit_loop>:
infinit_loop:
  j infinit_loop
 120:	0000006f          	j	120 <infinit_loop>

00000124 <isr>:
#include <generated/csr.h>
#include <generated/soc.h>

void isr(void) {
    // No interrupts used
}
 124:	00008067          	ret

00000128 <main>:
	MMPTR(a) = v;
}

static inline unsigned long csr_read_simple(unsigned long a)
{
	return MMPTR(a);
 128:	f00007b7          	lui	a5,0xf0000
	MMPTR(a) = v;
 12c:	04100713          	li	a4,65
	return MMPTR(a);
 130:	0047a683          	lw	a3,4(a5) # f0000004 <_fstack+0xdfff8004>

int main() {
   while(1){
    while (uart_txfull_read());      // Wait until TX FIFO not full
 134:	fe069ee3          	bnez	a3,130 <main+0x8>
	MMPTR(a) = v;
 138:	00e7a023          	sw	a4,0(a5)
 13c:	ff5ff06f          	j	130 <main+0x8>

Disassembly of section .riscv.attributes:

00000000 <.riscv.attributes>:
  j crt_init
   0:	2441                	jal	280 <_erodata+0x140>
   2:	0000                	unimp
  nop
   4:	7200                	flw	fs0,32(a2)
   6:	7369                	lui	t1,0xffffa
  nop
   8:	01007663          	bgeu	zero,a6,14 <__DYNAMIC+0x14>
  nop
   c:	001a                	c.slli	zero,0x6
   e:	0000                	unimp
  nop
  10:	1004                	addi	s1,sp,32
  12:	7205                	lui	tp,0xfffe1
  nop
  14:	3376                	fld	ft6,376(sp)
  16:	6932                	flw	fs2,12(sp)
  nop
  18:	7032                	flw	ft0,44(sp)
  1a:	5f30                	lw	a2,120(a4)
  nop
  1c:	326d                	jal	fffff9c6 <_fstack+0xefff79c6>
  1e:	3070                	fld	fa2,224(s0)
  sw x1,  - 1*4(sp)
  20:	0800                	addi	s0,sp,16
  22:	0a01                	addi	s4,s4,0
  sw x5,  - 2*4(sp)
  24:	0b              	Address 0x0000000000000024 is out of bounds.


Disassembly of section .comment:

00000000 <.comment>:
  j crt_init
   0:	3a434347          	fmsub.d	ft6,ft6,ft4,ft7,rmm
  nop
   4:	2820                	fld	fs0,80(s0)
   6:	2029                	jal	10 <__DYNAMIC+0x10>
  nop
   8:	3031                	jal	fffff814 <_fstack+0xefff7814>
   a:	322e                	fld	ft4,232(sp)
  nop
   c:	302e                	fld	ft0,232(sp)
	...

Disassembly of section .debug_line:

00000000 <.debug_line>:
  j crt_init
   0:	0209                	addi	tp,tp,2
   2:	0000                	unimp
  nop
   4:	006f0003          	lb	zero,6(t5)
  nop
   8:	0000                	unimp
   a:	0101                	addi	sp,sp,0
  nop
   c:	000d0efb          	0xd0efb
  nop
  10:	0101                	addi	sp,sp,0
  12:	0101                	addi	sp,sp,0
  nop
  14:	0000                	unimp
  16:	0100                	addi	s0,sp,128
  nop
  18:	0000                	unimp
  1a:	2f01                	jal	72a <_erodata+0x5ea>
  nop
  1c:	6f68                	flw	fa0,92(a4)
  1e:	656d                	lui	a0,0x1b
  sw x1,  - 1*4(sp)
  20:	6269742f          	0x6269742f
  sw x5,  - 2*4(sp)
  24:	6172                	flw	ft2,28(sp)
  26:	6968                	flw	fa0,84(a0)
  sw x6,  - 3*4(sp)
  28:	6f6d                	lui	t5,0x1b
  2a:	6976                	flw	fs2,92(sp)
  sw x7,  - 4*4(sp)
  2c:	72702f63          	0x72702f63
  sw x10, - 5*4(sp)
  30:	63656a6f          	jal	s4,56666 <_erodata+0x56526>
  sw x11, - 6*4(sp)
  34:	7374                	flw	fa3,100(a4)
  36:	7465622f          	0x7465622f
  sw x12, - 7*4(sp)
  3a:	7572                	flw	fa0,60(sp)
  sw x13, - 8*4(sp)
  3c:	64657473          	csrrci	s0,0x646,10
  sw x14, - 9*4(sp)
  40:	732d                	lui	t1,0xfffeb
  42:	642f636f          	jal	t1,f6684 <_erodata+0xf6544>
  sw x15, -10*4(sp)
  46:	7065                	c.lui	zero,0xffff9
  sw x16, -11*4(sp)
  48:	696c2f73          	csrrs	t5,0x696,s8
  sw x17, -12*4(sp)
  4c:	6574                	flw	fa3,76(a0)
  4e:	2f78                	fld	fa4,216(a4)
  sw x28, -13*4(sp)
  50:	696c                	flw	fa1,84(a0)
  52:	6574                	flw	fa3,76(a0)
  sw x29, -14*4(sp)
  54:	2f78                	fld	fa4,216(a4)
  56:	2f636f73          	csrrsi	t5,0x2f6,6
  sw x30, -15*4(sp)
  5a:	65726f63          	bltu	tp,s7,6b8 <_erodata+0x578>
  sw x31, -16*4(sp)
  5e:	70632f73          	csrrs	t5,0x706,t1
  addi sp,sp,-16*4
  62:	2f75                	jal	81e <_erodata+0x6de>
  call isr
  64:	6576                	flw	fa0,92(sp)
  66:	7278                	flw	fa4,100(a2)
  lw x1 , 15*4(sp)
  68:	7369                	lui	t1,0xffffa
  6a:	00007663          	bgeu	zero,zero,76 <trap_entry+0x56>
  lw x5,  14*4(sp)
  6e:	30747263          	bgeu	s0,t2,372 <_erodata+0x232>
  lw x6,  13*4(sp)
  72:	532e                	lw	t1,232(sp)
  lw x7,  12*4(sp)
  74:	0100                	addi	s0,sp,128
  76:	0000                	unimp
  lw x10, 11*4(sp)
  78:	0000                	unimp
  7a:	0205                	addi	tp,tp,1
  lw x11, 10*4(sp)
  7c:	0000                	unimp
  7e:	0000                	unimp
  lw x12,  9*4(sp)
  80:	09010317          	auipc	t1,0x9010
  lw x13,  8*4(sp)
  84:	0004                	0x4
  86:	0301                	addi	t1,t1,0
  lw x14,  7*4(sp)
  88:	0901                	addi	s2,s2,0
  8a:	0004                	0x4
  lw x15,  6*4(sp)
  8c:	0301                	addi	t1,t1,0
  8e:	0901                	addi	s2,s2,0
  lw x16,  5*4(sp)
  90:	0004                	0x4
  92:	0301                	addi	t1,t1,0
  lw x17,  4*4(sp)
  94:	0901                	addi	s2,s2,0
  96:	0004                	0x4
  lw x28,  3*4(sp)
  98:	0301                	addi	t1,t1,0
  9a:	0901                	addi	s2,s2,0
  lw x29,  2*4(sp)
  9c:	0004                	0x4
  9e:	0301                	addi	t1,t1,0
  lw x30,  1*4(sp)
  a0:	0901                	addi	s2,s2,0
  a2:	0004                	0x4
  lw x31,  0*4(sp)
  a4:	0301                	addi	t1,t1,0
  a6:	0901                	addi	s2,s2,0
  addi sp,sp,16*4
  a8:	0004                	0x4
  aa:	0301                	addi	t1,t1,0
  mret
  ac:	0904                	addi	s1,sp,144
  ae:	0004                	0x4
  la sp, _fstack
  b0:	0301                	addi	t1,t1,0
  b2:	0901                	addi	s2,s2,0
  b4:	0004                	0x4
  b6:	0301                	addi	t1,t1,0
  la a0, trap_entry
  b8:	0901                	addi	s2,s2,0
  ba:	0004                	0x4
  bc:	0301                	addi	t1,t1,0
  be:	0901                	addi	s2,s2,0
  csrw mtvec, a0
  c0:	0004                	0x4
  c2:	0301                	addi	t1,t1,0
  la a0, _fdata
  c4:	0901                	addi	s2,s2,0
  c6:	0004                	0x4
  c8:	0301                	addi	t1,t1,0
  ca:	0901                	addi	s2,s2,0
  la a1, _edata
  cc:	0004                	0x4
  ce:	0301                	addi	t1,t1,0
  d0:	0901                	addi	s2,s2,0
  d2:	0004                	0x4
  la a2, _fdata_rom
  d4:	0301                	addi	t1,t1,0
  d6:	0901                	addi	s2,s2,0
  beq a0,a1,data_done
  d8:	0004                	0x4
  da:	0301                	addi	t1,t1,0
  lw a3,0(a2)
  dc:	0901                	addi	s2,s2,0
  de:	0004                	0x4
  sw a3,0(a0)
  e0:	0301                	addi	t1,t1,0
  e2:	0901                	addi	s2,s2,0
  add a0,a0,4
  e4:	0004                	0x4
  e6:	0301                	addi	t1,t1,0
  add a2,a2,4
  e8:	0901                	addi	s2,s2,0
  ea:	0004                	0x4
  j data_loop
  ec:	0301                	addi	t1,t1,0
  ee:	0901                	addi	s2,s2,0
  la a0, _fbss
  f0:	0004                	0x4
  f2:	0301                	addi	t1,t1,0
  f4:	0901                	addi	s2,s2,0
  f6:	0004                	0x4
  la a1, _ebss
  f8:	0301                	addi	t1,t1,0
  fa:	0901                	addi	s2,s2,0
  fc:	0004                	0x4
  fe:	0301                	addi	t1,t1,0
  beq a0,a1,bss_done
 100:	0901                	addi	s2,s2,0
 102:	0004                	0x4
  sw zero,0(a0)
 104:	0301                	addi	t1,t1,0
 106:	0901                	addi	s2,s2,0
  add a0,a0,4
 108:	0004                	0x4
 10a:	0301                	addi	t1,t1,0
  j bss_loop
 10c:	0901                	addi	s2,s2,0
 10e:	0004                	0x4
  li a0, 0x880  //880 enable timer + external interrupt sources (until mstatus.MIE is set, they will never trigger an interrupt)
 110:	0301                	addi	t1,t1,0
 112:	0901                	addi	s2,s2,0
 114:	0004                	0x4
 116:	0301                	addi	t1,t1,0
  csrw mie,a0
 118:	0901                	addi	s2,s2,0
 11a:	0004                	0x4
  call main
 11c:	0301                	addi	t1,t1,0
 11e:	0901                	addi	s2,s2,0
  j infinit_loop
 120:	0004                	0x4
 122:	0301                	addi	t1,t1,0
}
 124:	0901                	addi	s2,s2,0
 126:	0004                	0x4
	return MMPTR(a);
 128:	0301                	addi	t1,t1,0
 12a:	0901                	addi	s2,s2,0
	MMPTR(a) = v;
 12c:	0004                	0x4
 12e:	0301                	addi	t1,t1,0
	return MMPTR(a);
 130:	0901                	addi	s2,s2,0
 132:	0004                	0x4
    while (uart_txfull_read());      // Wait until TX FIFO not full
 134:	0301                	addi	t1,t1,0
 136:	0901                	addi	s2,s2,0
	MMPTR(a) = v;
 138:	0004                	0x4
 13a:	0301                	addi	t1,t1,0
 13c:	0901                	addi	s2,s2,0
 13e:	0004                	0x4
 140:	0301                	addi	t1,t1,0
 142:	0901                	addi	s2,s2,0
 144:	0004                	0x4
 146:	0301                	addi	t1,t1,0
 148:	0901                	addi	s2,s2,0
 14a:	0004                	0x4
 14c:	0301                	addi	t1,t1,0
 14e:	0901                	addi	s2,s2,0
 150:	0004                	0x4
 152:	0301                	addi	t1,t1,0
 154:	0901                	addi	s2,s2,0
 156:	0004                	0x4
 158:	0301                	addi	t1,t1,0
 15a:	0901                	addi	s2,s2,0
 15c:	0004                	0x4
 15e:	0301                	addi	t1,t1,0
 160:	0901                	addi	s2,s2,0
 162:	0004                	0x4
 164:	0301                	addi	t1,t1,0
 166:	0901                	addi	s2,s2,0
 168:	0004                	0x4
 16a:	0301                	addi	t1,t1,0
 16c:	0901                	addi	s2,s2,0
 16e:	0004                	0x4
 170:	0301                	addi	t1,t1,0
 172:	0901                	addi	s2,s2,0
 174:	0004                	0x4
 176:	0301                	addi	t1,t1,0
 178:	0901                	addi	s2,s2,0
 17a:	0004                	0x4
 17c:	0301                	addi	t1,t1,0
 17e:	0901                	addi	s2,s2,0
 180:	0004                	0x4
 182:	0301                	addi	t1,t1,0
 184:	0905                	addi	s2,s2,1
 186:	0004                	0x4
 188:	0301                	addi	t1,t1,0
 18a:	0901                	addi	s2,s2,0
 18c:	0008                	0x8
 18e:	0301                	addi	t1,t1,0
 190:	0901                	addi	s2,s2,0
 192:	0008                	0x8
 194:	0301                	addi	t1,t1,0
 196:	00040903          	lb	s2,0(s0)
 19a:	0301                	addi	t1,t1,0
 19c:	0901                	addi	s2,s2,0
 19e:	0008                	0x8
 1a0:	0301                	addi	t1,t1,0
 1a2:	0901                	addi	s2,s2,0
 1a4:	0008                	0x8
 1a6:	0301                	addi	t1,t1,0
 1a8:	0902                	c.slli64	s2
 1aa:	0004                	0x4
 1ac:	0301                	addi	t1,t1,0
 1ae:	0901                	addi	s2,s2,0
 1b0:	0004                	0x4
 1b2:	0301                	addi	t1,t1,0
 1b4:	0901                	addi	s2,s2,0
 1b6:	0004                	0x4
 1b8:	0301                	addi	t1,t1,0
 1ba:	0901                	addi	s2,s2,0
 1bc:	0004                	0x4
 1be:	0301                	addi	t1,t1,0
 1c0:	0901                	addi	s2,s2,0
 1c2:	0004                	0x4
 1c4:	0301                	addi	t1,t1,0
 1c6:	0901                	addi	s2,s2,0
 1c8:	0004                	0x4
 1ca:	0301                	addi	t1,t1,0
 1cc:	0904                	addi	s1,sp,144
 1ce:	0004                	0x4
 1d0:	0301                	addi	t1,t1,0
 1d2:	0901                	addi	s2,s2,0
 1d4:	0008                	0x8
 1d6:	0301                	addi	t1,t1,0
 1d8:	0902                	c.slli64	s2
 1da:	0008                	0x8
 1dc:	0301                	addi	t1,t1,0
 1de:	0901                	addi	s2,s2,0
 1e0:	0004                	0x4
 1e2:	0301                	addi	t1,t1,0
 1e4:	0901                	addi	s2,s2,0
 1e6:	0004                	0x4
 1e8:	0301                	addi	t1,t1,0
 1ea:	0901                	addi	s2,s2,0
 1ec:	0004                	0x4
 1ee:	0301                	addi	t1,t1,0
 1f0:	00040903          	lb	s2,0(s0)
 1f4:	0301                	addi	t1,t1,0
 1f6:	0901                	addi	s2,s2,0
 1f8:	0008                	0x8
 1fa:	0301                	addi	t1,t1,0
 1fc:	0902                	c.slli64	s2
 1fe:	0004                	0x4
 200:	0301                	addi	t1,t1,0
 202:	0902                	c.slli64	s2
 204:	0004                	0x4
 206:	0901                	addi	s2,s2,0
 208:	0004                	0x4
 20a:	0100                	addi	s0,sp,128
 20c:	2201                	jal	30c <_erodata+0x1cc>
 20e:	0004                	0x4
 210:	0300                	addi	s0,sp,384
 212:	5000                	lw	s0,32(s0)
 214:	01000003          	lb	zero,16(zero) # 10 <__DYNAMIC+0x10>
 218:	fb01                	bnez	a4,128 <main>
 21a:	0d0e                	slli	s10,s10,0x3
 21c:	0100                	addi	s0,sp,128
 21e:	0101                	addi	sp,sp,0
 220:	0001                	nop
 222:	0000                	unimp
 224:	0001                	nop
 226:	0100                	addi	s0,sp,128
 228:	6d6f682f          	0x6d6f682f
 22c:	2f65                	jal	9e4 <_erodata+0x8a4>
 22e:	6974                	flw	fa3,84(a0)
 230:	7262                	flw	ft4,56(sp)
 232:	6861                	lui	a6,0x18
 234:	6d69                	lui	s10,0x1a
 236:	6369766f          	jal	a2,9786c <_erodata+0x9772c>
 23a:	6f72702f          	0x6f72702f
 23e:	656a                	flw	fa0,152(sp)
 240:	2f737463          	bgeu	t1,s7,528 <_erodata+0x3e8>
 244:	6562                	flw	fa0,24(sp)
 246:	7274                	flw	fa3,100(a2)
 248:	7375                	lui	t1,0xffffd
 24a:	6574                	flw	fa3,76(a0)
 24c:	2d64                	fld	fs1,216(a0)
 24e:	2f636f73          	csrrsi	t5,0x2f6,6
 252:	6564                	flw	fs1,76(a0)
 254:	7370                	flw	fa2,100(a4)
 256:	74696c2f          	0x74696c2f
 25a:	7865                	lui	a6,0xffff9
 25c:	74696c2f          	0x74696c2f
 260:	7865                	lui	a6,0xffff9
 262:	636f732f          	0x636f732f
 266:	666f732f          	0x666f732f
 26a:	7774                	flw	fa3,108(a4)
 26c:	7261                	lui	tp,0xffff8
 26e:	2f65                	jal	a26 <_erodata+0x8e6>
 270:	6e69                	lui	t3,0x1a
 272:	64756c63          	bltu	a0,t2,8ca <_erodata+0x78a>
 276:	2f65                	jal	a2e <_erodata+0x8ee>
 278:	7768                	flw	fa0,108(a4)
 27a:	2f00                	fld	fs0,24(a4)
 27c:	6f68                	flw	fa0,92(a4)
 27e:	656d                	lui	a0,0x1b
 280:	6269742f          	0x6269742f
 284:	6172                	flw	ft2,28(sp)
 286:	6968                	flw	fa0,84(a0)
 288:	6f6d                	lui	t5,0x1b
 28a:	6976                	flw	fs2,92(sp)
 28c:	72702f63          	0x72702f63
 290:	63656a6f          	jal	s4,568c6 <_erodata+0x56786>
 294:	7374                	flw	fa3,100(a4)
 296:	7465622f          	0x7465622f
 29a:	7572                	flw	fa0,60(sp)
 29c:	64657473          	csrrci	s0,0x646,10
 2a0:	732d                	lui	t1,0xfffeb
 2a2:	622f636f          	jal	t1,f68c4 <_erodata+0xf6784>
 2a6:	6975                	lui	s2,0x1d
 2a8:	646c                	flw	fa1,76(s0)
 2aa:	666f732f          	0x666f732f
 2ae:	7774                	flw	fa3,108(a4)
 2b0:	7261                	lui	tp,0xffff8
 2b2:	2f65                	jal	a6a <_erodata+0x92a>
 2b4:	6e69                	lui	t3,0x1a
 2b6:	64756c63          	bltu	a0,t2,90e <_erodata+0x7ce>
 2ba:	2f65                	jal	a72 <_erodata+0x932>
 2bc:	656e6567          	0x656e6567
 2c0:	6172                	flw	ft2,28(sp)
 2c2:	6574                	flw	fa3,76(a0)
 2c4:	0064                	addi	s1,sp,12
 2c6:	6d6f682f          	0x6d6f682f
 2ca:	2f65                	jal	a82 <_erodata+0x942>
 2cc:	6974                	flw	fa3,84(a0)
 2ce:	7262                	flw	ft4,56(sp)
 2d0:	6861                	lui	a6,0x18
 2d2:	6d69                	lui	s10,0x1a
 2d4:	6369766f          	jal	a2,9790a <_erodata+0x977ca>
 2d8:	6f72702f          	0x6f72702f
 2dc:	656a                	flw	fa0,152(sp)
 2de:	2f737463          	bgeu	t1,s7,5c6 <_erodata+0x486>
 2e2:	6562                	flw	fa0,24(sp)
 2e4:	7274                	flw	fa3,100(a2)
 2e6:	7375                	lui	t1,0xffffd
 2e8:	6574                	flw	fa3,76(a0)
 2ea:	2d64                	fld	fs1,216(a0)
 2ec:	2f636f73          	csrrsi	t5,0x2f6,6
 2f0:	6564                	flw	fs1,76(a0)
 2f2:	7370                	flw	fa2,100(a4)
 2f4:	7479702f          	0x7479702f
 2f8:	6f68                	flw	fa0,92(a4)
 2fa:	646e                	flw	fs0,216(sp)
 2fc:	7461                	lui	s0,0xffff8
 2fe:	2d61                	jal	996 <_erodata+0x856>
 300:	74666f73          	csrrsi	t5,0x746,12
 304:	65726177          	0x65726177
 308:	702d                	c.lui	zero,0xfffeb
 30a:	6369                	lui	t1,0x1a
 30c:	62696c6f          	jal	s8,96932 <_erodata+0x967f2>
 310:	79702f63          	0x79702f63
 314:	6874                	flw	fa3,84(s0)
 316:	61646e6f          	jal	t3,4692c <_erodata+0x467ec>
 31a:	6174                	flw	fa3,68(a0)
 31c:	735f 666f 7774      	0x7774666f735f
 322:	7261                	lui	tp,0xffff8
 324:	5f65                	li	t5,-7
 326:	6970                	flw	fa2,84(a0)
 328:	696c6f63          	bltu	s8,s6,9c6 <_erodata+0x886>
 32c:	6362                	flw	ft6,24(sp)
 32e:	7461642f          	0x7461642f
 332:	2f61                	jal	aca <_erodata+0x98a>
 334:	656e                	flw	fa0,216(sp)
 336:	62696c77          	0x62696c77
 33a:	62696c2f          	0x62696c2f
 33e:	6e692f63          	0x6e692f63
 342:	64756c63          	bltu	a0,t2,99a <_erodata+0x85a>
 346:	2f65                	jal	afe <_erodata+0x9be>
 348:	616d                	addi	sp,sp,240
 34a:	6e696863          	bltu	s2,t1,a3a <_erodata+0x8fa>
 34e:	0065                	c.nop	25
 350:	6d6f682f          	0x6d6f682f
 354:	2f65                	jal	b0c <_erodata+0x9cc>
 356:	6974                	flw	fa3,84(a0)
 358:	7262                	flw	ft4,56(sp)
 35a:	6861                	lui	a6,0x18
 35c:	6d69                	lui	s10,0x1a
 35e:	6369766f          	jal	a2,97994 <_erodata+0x97854>
 362:	6f72702f          	0x6f72702f
 366:	656a                	flw	fa0,152(sp)
 368:	2f737463          	bgeu	t1,s7,650 <_erodata+0x510>
 36c:	6562                	flw	fa0,24(sp)
 36e:	7274                	flw	fa3,100(a2)
 370:	7375                	lui	t1,0xffffd
 372:	6574                	flw	fa3,76(a0)
 374:	2d64                	fld	fs1,216(a0)
 376:	2f636f73          	csrrsi	t5,0x2f6,6
 37a:	6564                	flw	fs1,76(a0)
 37c:	7370                	flw	fa2,100(a4)
 37e:	7479702f          	0x7479702f
 382:	6f68                	flw	fa0,92(a4)
 384:	646e                	flw	fs0,216(sp)
 386:	7461                	lui	s0,0xffff8
 388:	2d61                	jal	a20 <_erodata+0x8e0>
 38a:	74666f73          	csrrsi	t5,0x746,12
 38e:	65726177          	0x65726177
 392:	702d                	c.lui	zero,0xfffeb
 394:	6369                	lui	t1,0x1a
 396:	62696c6f          	jal	s8,969bc <_erodata+0x9687c>
 39a:	79702f63          	0x79702f63
 39e:	6874                	flw	fa3,84(s0)
 3a0:	61646e6f          	jal	t3,469b6 <_erodata+0x46876>
 3a4:	6174                	flw	fa3,68(a0)
 3a6:	735f 666f 7774      	0x7774666f735f
 3ac:	7261                	lui	tp,0xffff8
 3ae:	5f65                	li	t5,-7
 3b0:	6970                	flw	fa2,84(a0)
 3b2:	696c6f63          	bltu	s8,s6,a50 <_erodata+0x910>
 3b6:	6362                	flw	ft6,24(sp)
 3b8:	7461642f          	0x7461642f
 3bc:	2f61                	jal	b54 <_erodata+0xa14>
 3be:	656e                	flw	fa0,216(sp)
 3c0:	62696c77          	0x62696c77
 3c4:	62696c2f          	0x62696c2f
 3c8:	6e692f63          	0x6e692f63
 3cc:	64756c63          	bltu	a0,t2,a24 <_erodata+0x8e4>
 3d0:	2f65                	jal	b88 <_erodata+0xa48>
 3d2:	00737973          	csrrci	s2,0x7,6
 3d6:	6d6f682f          	0x6d6f682f
 3da:	2f65                	jal	b92 <_erodata+0xa52>
 3dc:	6974                	flw	fa3,84(a0)
 3de:	7262                	flw	ft4,56(sp)
 3e0:	6861                	lui	a6,0x18
 3e2:	6d69                	lui	s10,0x1a
 3e4:	6369766f          	jal	a2,97a1a <_erodata+0x978da>
 3e8:	6f72702f          	0x6f72702f
 3ec:	656a                	flw	fa0,152(sp)
 3ee:	2f737463          	bgeu	t1,s7,6d6 <_erodata+0x596>
 3f2:	6562                	flw	fa0,24(sp)
 3f4:	7274                	flw	fa3,100(a2)
 3f6:	7375                	lui	t1,0xffffd
 3f8:	6574                	flw	fa3,76(a0)
 3fa:	2d64                	fld	fs1,216(a0)
 3fc:	2f636f73          	csrrsi	t5,0x2f6,6
 400:	6564                	flw	fs1,76(a0)
 402:	7370                	flw	fa2,100(a4)
 404:	7479702f          	0x7479702f
 408:	6f68                	flw	fa0,92(a4)
 40a:	646e                	flw	fs0,216(sp)
 40c:	7461                	lui	s0,0xffff8
 40e:	2d61                	jal	aa6 <_erodata+0x966>
 410:	74666f73          	csrrsi	t5,0x746,12
 414:	65726177          	0x65726177
 418:	702d                	c.lui	zero,0xfffeb
 41a:	6369                	lui	t1,0x1a
 41c:	62696c6f          	jal	s8,96a42 <_erodata+0x96902>
 420:	79702f63          	0x79702f63
 424:	6874                	flw	fa3,84(s0)
 426:	61646e6f          	jal	t3,46a3c <_erodata+0x468fc>
 42a:	6174                	flw	fa3,68(a0)
 42c:	735f 666f 7774      	0x7774666f735f
 432:	7261                	lui	tp,0xffff8
 434:	5f65                	li	t5,-7
 436:	6970                	flw	fa2,84(a0)
 438:	696c6f63          	bltu	s8,s6,ad6 <_erodata+0x996>
 43c:	6362                	flw	ft6,24(sp)
 43e:	7461642f          	0x7461642f
 442:	2f61                	jal	bda <_erodata+0xa9a>
 444:	656e                	flw	fa0,216(sp)
 446:	62696c77          	0x62696c77
 44a:	62696c2f          	0x62696c2f
 44e:	6e692f63          	0x6e692f63
 452:	64756c63          	bltu	a0,t2,aaa <_erodata+0x96a>
 456:	0065                	c.nop	25
 458:	6d6f682f          	0x6d6f682f
 45c:	2f65                	jal	c14 <_erodata+0xad4>
 45e:	6974                	flw	fa3,84(a0)
 460:	7262                	flw	ft4,56(sp)
 462:	6861                	lui	a6,0x18
 464:	6d69                	lui	s10,0x1a
 466:	6369766f          	jal	a2,97a9c <_erodata+0x9795c>
 46a:	6f72702f          	0x6f72702f
 46e:	656a                	flw	fa0,152(sp)
 470:	2f737463          	bgeu	t1,s7,758 <_erodata+0x618>
 474:	6562                	flw	fa0,24(sp)
 476:	7274                	flw	fa3,100(a2)
 478:	7375                	lui	t1,0xffffd
 47a:	6574                	flw	fa3,76(a0)
 47c:	2d64                	fld	fs1,216(a0)
 47e:	2f636f73          	csrrsi	t5,0x2f6,6
 482:	6564                	flw	fs1,76(a0)
 484:	7370                	flw	fa2,100(a4)
 486:	74696c2f          	0x74696c2f
 48a:	7865                	lui	a6,0xffff9
 48c:	74696c2f          	0x74696c2f
 490:	7865                	lui	a6,0xffff9
 492:	636f732f          	0x636f732f
 496:	726f632f          	0x726f632f
 49a:	7365                	lui	t1,0xffff9
 49c:	7570632f          	0x7570632f
 4a0:	7865762f          	0x7865762f
 4a4:	6972                	flw	fs2,28(sp)
 4a6:	00766373          	csrrsi	t1,0x7,12
 4aa:	6d00                	flw	fs0,24(a0)
 4ac:	6961                	lui	s2,0x18
 4ae:	2e6e                	fld	ft8,216(sp)
 4b0:	00000063          	beqz	zero,4b0 <_erodata+0x370>
 4b4:	6300                	flw	fs0,0(a4)
 4b6:	6f6d6d6f          	jal	s10,d6bac <_erodata+0xd6a6c>
 4ba:	2e6e                	fld	ft8,216(sp)
 4bc:	0068                	addi	a0,sp,12
 4be:	0001                	nop
 4c0:	6300                	flw	fs0,0(a4)
 4c2:	682e7273          	csrrci	tp,0x682,28
 4c6:	0200                	addi	s0,sp,256
 4c8:	0000                	unimp
 4ca:	645f 6665 7561      	0x75616665645f
 4d0:	746c                	flw	fa1,108(s0)
 4d2:	745f 7079 7365      	0x73657079745f
 4d8:	682e                	flw	fa6,200(sp)
 4da:	0300                	addi	s0,sp,384
 4dc:	0000                	unimp
 4de:	735f 6474 6e69      	0x6e696474735f
 4e4:	2e74                	fld	fa3,216(a2)
 4e6:	0068                	addi	a0,sp,12
 4e8:	0004                	0x4
 4ea:	7300                	flw	fs0,32(a4)
 4ec:	682e636f          	jal	t1,e6b6e <_erodata+0xe6a2e>
 4f0:	0200                	addi	s0,sp,256
 4f2:	0000                	unimp
 4f4:	69647473          	csrrci	s0,0x696,8
 4f8:	746e                	flw	fs0,248(sp)
 4fa:	682e                	flw	fa6,200(sp)
 4fc:	0500                	addi	s0,sp,640
 4fe:	0000                	unimp
 500:	66656463          	bltu	a0,t1,b68 <_erodata+0xa28>
 504:	00682e73          	csrrs	t3,0x6,a6
 508:	0004                	0x4
 50a:	6300                	flw	fs0,0(a4)
 50c:	69666e6f          	jal	t3,66ba2 <_erodata+0x66a62>
 510:	00682e67          	0x682e67
 514:	0004                	0x4
 516:	6900                	flw	fs0,16(a0)
 518:	6565                	lui	a0,0x19
 51a:	6665                	lui	a2,0x19
 51c:	2e70                	fld	fa2,216(a2)
 51e:	0068                	addi	a0,sp,12
 520:	66000003          	lb	zero,1632(zero) # 660 <_erodata+0x520>
 524:	6165                	addi	sp,sp,112
 526:	7574                	flw	fa3,108(a0)
 528:	6572                	flw	fa0,28(sp)
 52a:	00682e73          	csrrs	t3,0x6,a6
 52e:	0004                	0x4
 530:	7000                	flw	fs0,32(s0)
 532:	6369                	lui	t1,0x1a
 534:	62696c6f          	jal	s8,96b5a <_erodata+0x96a1a>
 538:	00682e63          	0x682e63
 53c:	0005                	c.nop	1
 53e:	5f00                	lw	s0,56(a4)
 540:	6e69                	lui	t3,0x1a
 542:	7374                	flw	fa3,100(a4)
 544:	7075                	c.lui	zero,0xffffd
 546:	682e                	flw	fa6,200(sp)
 548:	0400                	addi	s0,sp,512
 54a:	0000                	unimp
 54c:	74737973          	csrrci	s2,0x747,6
 550:	6d65                	lui	s10,0x19
 552:	682e                	flw	fa6,200(sp)
 554:	0600                	addi	s0,sp,768
 556:	0000                	unimp
 558:	2d727363          	bgeu	tp,s7,81e <_erodata+0x6de>
 55c:	6564                	flw	fs1,76(a0)
 55e:	7366                	flw	ft6,120(sp)
 560:	682e                	flw	fa6,200(sp)
 562:	0600                	addi	s0,sp,768
 564:	0000                	unimp
 566:	0500                	addi	s0,sp,640
 568:	0010                	0x10
 56a:	0205                	addi	tp,tp,1
 56c:	0124                	addi	s1,sp,136
 56e:	0000                	unimp
 570:	0515                	addi	a0,a0,5
 572:	0301                	addi	t1,t1,0
 574:	0902                	c.slli64	s2
 576:	0000                	unimp
 578:	0901                	addi	s2,s2,0
 57a:	0004                	0x4
 57c:	0100                	addi	s0,sp,128
 57e:	0501                	addi	a0,a0,0
 580:	000c                	0xc
 582:	0205                	addi	tp,tp,1
 584:	0128                	addi	a0,sp,136
 586:	0000                	unimp
 588:	0419                	addi	s0,s0,6
 58a:	0502                	c.slli64	a0
 58c:	0609                	addi	a2,a2,2
 58e:	00092e03          	lw	t3,0(s2) # 18000 <_erodata+0x17ec0>
 592:	0100                	addi	s0,sp,128
 594:	0b05                	addi	s6,s6,1
 596:	04097b03          	0x4097b03
 59a:	0100                	addi	s0,sp,128
 59c:	0104                	addi	s1,sp,128
 59e:	1f05                	addi	t5,t5,-31
 5a0:	0200                	addi	s0,sp,256
 5a2:	0104                	addi	s1,sp,128
 5a4:	0306                	slli	t1,t1,0x1
 5a6:	0959                	addi	s2,s2,22
 5a8:	0004                	0x4
 5aa:	0501                	addi	a0,a0,0
 5ac:	0402000b          	0x402000b
 5b0:	0301                	addi	t1,t1,0
 5b2:	0900                	addi	s0,sp,144
 5b4:	0000                	unimp
 5b6:	0401                	addi	s0,s0,0
 5b8:	00020503          	lb	a0,0(tp) # ffff8000 <_fstack+0xefff0000>
 5bc:	0402                	c.slli64	s0
 5be:	0301                	addi	t1,t1,0
 5c0:	000900c3          	fmadd.s	ft1,fs2,ft0,ft0,rne
 5c4:	0100                	addi	s0,sp,128
 5c6:	0204                	addi	s1,sp,256
 5c8:	0200                	addi	s0,sp,256
 5ca:	0104                	addi	s1,sp,128
 5cc:	00096903          	0x96903
 5d0:	0100                	addi	s0,sp,128
 5d2:	0905                	addi	s2,s2,1
 5d4:	0200                	addi	s0,sp,256
 5d6:	0104                	addi	s1,sp,128
 5d8:	0306                	slli	t1,t1,0x1
 5da:	0900                	addi	s0,sp,144
 5dc:	0000                	unimp
 5de:	0401                	addi	s0,s0,0
 5e0:	0501                	addi	a0,a0,0
 5e2:	0402000b          	0x402000b
 5e6:	0301                	addi	t1,t1,0
 5e8:	0954                	addi	a3,sp,148
 5ea:	0004                	0x4
 5ec:	0501                	addi	a0,a0,0
 5ee:	0605                	addi	a2,a2,1
 5f0:	04090103          	lb	sp,64(s2)
 5f4:	0100                	addi	s0,sp,128
 5f6:	0304                	addi	s1,sp,384
 5f8:	0205                	addi	tp,tp,1
 5fa:	00093f03          	0x93f03
 5fe:	0100                	addi	s0,sp,128
 600:	0204                	addi	s1,sp,256
 602:	00096703          	0x96703
 606:	0100                	addi	s0,sp,128
 608:	0b05                	addi	s6,s6,1
 60a:	0306                	slli	t1,t1,0x1
 60c:	0900                	addi	s0,sp,144
 60e:	0000                	unimp
 610:	0401                	addi	s0,s0,0
 612:	0501                	addi	a0,a0,0
 614:	0604                	addi	s1,sp,768
 616:	04095803          	lhu	a6,64(s2)
 61a:	0100                	addi	s0,sp,128
 61c:	0505                	addi	a0,a0,1
 61e:	00090103          	lb	sp,0(s2)
 622:	0100                	addi	s0,sp,128
 624:	0b05                	addi	s6,s6,1
 626:	0306                	slli	t1,t1,0x1
 628:	0900                	addi	s0,sp,144
 62a:	0000                	unimp
 62c:	0901                	addi	s2,s2,0
 62e:	0004                	0x4
 630:	0100                	addi	s0,sp,128
 632:	01              	Address 0x0000000000000632 is out of bounds.


Disassembly of section .debug_info:

00000000 <.debug_info>:
  j crt_init
   0:	0022                	c.slli	zero,0x8
   2:	0000                	unimp
  nop
   4:	0002                	c.slli64	zero
   6:	0000                	unimp
  nop
   8:	0000                	unimp
   a:	0104                	addi	s1,sp,128
	...
  nop
  14:	0124                	addi	s1,sp,136
  16:	0000                	unimp
  nop
  18:	0000                	unimp
  1a:	0000                	unimp
  nop
  1c:	0059                	c.nop	22
  1e:	0000                	unimp
  sw x1,  - 1*4(sp)
  20:	00000097          	auipc	ra,0x0
  sw x5,  - 2*4(sp)
  24:	8001                	c.srli64	s0
  26:	017c                	addi	a5,sp,140
  sw x6,  - 3*4(sp)
  28:	0000                	unimp
  2a:	0004                	0x4
  sw x7,  - 4*4(sp)
  2c:	0014                	0x14
  2e:	0000                	unimp
  sw x10, - 5*4(sp)
  30:	0104                	addi	s1,sp,128
  32:	06f4                	addi	a3,sp,844
  sw x11, - 6*4(sp)
  34:	0000                	unimp
  36:	530c                	lw	a1,32(a4)
  sw x12, - 7*4(sp)
  38:	0002                	c.slli64	zero
  3a:	5900                	lw	s0,48(a0)
  sw x13, - 8*4(sp)
  3c:	0000                	unimp
  3e:	4800                	lw	s0,16(s0)
  sw x14, - 9*4(sp)
  40:	0000                	unimp
  42:	0000                	unimp
  sw x15, -10*4(sp)
  44:	0000                	unimp
  46:	0d00                	addi	s0,sp,656
  sw x16, -11*4(sp)
  48:	0002                	c.slli64	zero
  4a:	0000                	unimp
  sw x17, -12*4(sp)
  4c:	0000                	unimp
  4e:	0200                	addi	s0,sp,256
  sw x28, -13*4(sp)
  50:	0601                	addi	a2,a2,0
  52:	3ac4                	fld	fs1,176(a3)
  sw x29, -14*4(sp)
  54:	0000                	unimp
  56:	0102                	c.slli64	sp
  sw x30, -15*4(sp)
  58:	7608                	flw	fa0,40(a2)
  5a:	003d                	c.nop	15
  sw x31, -16*4(sp)
  5c:	0200                	addi	s0,sp,256
  5e:	0502                	c.slli64	a0
  addi sp,sp,-16*4
  60:	0a98                	addi	a4,sp,336
  62:	0000                	unimp
  call isr
  64:	0202                	c.slli64	tp
  66:	0008e007          	0x8e007
  lw x1 , 15*4(sp)
  6a:	0200                	addi	s0,sp,256
  lw x5,  14*4(sp)
  6c:	0504                	addi	s1,sp,640
  6e:	3925                	jal	fffffca6 <_fstack+0xefff7ca6>
  lw x6,  13*4(sp)
  70:	0000                	unimp
  72:	0036cb03          	lbu	s6,3(a3)
  lw x7,  12*4(sp)
  76:	0400                	addi	s0,sp,512
  lw x10, 11*4(sp)
  78:	19e9                	addi	s3,s3,-6
  7a:	0058                	addi	a4,sp,4
  lw x11, 10*4(sp)
  7c:	0000                	unimp
  7e:	0402                	c.slli64	s0
  lw x12,  9*4(sp)
  80:	0034f007          	0x34f007
  lw x13,  8*4(sp)
  84:	0200                	addi	s0,sp,256
  86:	0508                	addi	a0,sp,640
  lw x14,  7*4(sp)
  88:	00002e3f 6a070802 	0x6a07080200002e3f
  lw x16,  5*4(sp)
  90:	0049                	c.nop	18
  92:	0400                	addi	s0,sp,512
  lw x17,  4*4(sp)
  94:	0504                	addi	s1,sp,640
  96:	6e69                	lui	t3,0x1a
  lw x28,  3*4(sp)
  98:	0074                	addi	a3,sp,12
  9a:	0402                	c.slli64	s0
  lw x29,  2*4(sp)
  9c:	00451c07          	0x451c07
  lw x30,  1*4(sp)
  a0:	0300                	addi	s0,sp,384
  a2:	36cd                	jal	fffffc84 <_fstack+0xefff7c84>
  lw x31,  0*4(sp)
  a4:	0000                	unimp
  a6:	2e05                	jal	3d6 <_erodata+0x296>
  addi sp,sp,16*4
  a8:	4c14                	lw	a3,24(s0)
  aa:	0000                	unimp
  mret
  ac:	0500                	addi	s0,sp,640
  ae:	00003fef          	jal	t6,30ae <_erodata+0x2f6e>
  la sp, _fstack
  b2:	0801                	addi	a6,a6,0
  b4:	6d05                	lui	s10,0x1
  b6:	0000                	unimp
  la a0, trap_entry
  b8:	2800                	fld	fs0,16(s0)
  ba:	0001                	nop
  bc:	1800                	addi	s0,sp,48
  be:	0000                	unimp
  csrw mtvec, a0
  c0:	0100                	addi	s0,sp,128
  c2:	0e9c                	addi	a5,sp,848
  la a0, _fdata
  c4:	0001                	nop
  c6:	0600                	addi	s0,sp,768
  c8:	0120                	addi	s0,sp,136
  ca:	0000                	unimp
  la a1, _edata
  cc:	0128                	addi	a0,sp,136
  ce:	0000                	unimp
  d0:	0000                	unimp
  d2:	0000                	unimp
  la a2, _fdata_rom
  d4:	0a01                	addi	s4,s4,0
  d6:	d00c                	sw	a1,32(s0)
  beq a0,a1,data_done
  d8:	0000                	unimp
  da:	0700                	addi	s0,sp,896
  lw a3,0(a2)
  dc:	0145                	addi	sp,sp,17
  de:	0000                	unimp
  sw a3,0(a0)
  e0:	0128                	addi	a0,sp,136
  e2:	0000                	unimp
  add a0,a0,4
  e4:	0000                	unimp
  e6:	0000                	unimp
  add a2,a2,4
  e8:	08094d03          	lbu	s10,128(s2)
  j data_loop
  ec:	0156                	slli	sp,sp,0x15
	...
  la a0, _fbss
  f6:	00012d07          	flw	fs10,0(sp)
  la a1, _ebss
  fa:	2c00                	fld	fs0,24(s0)
  fc:	0001                	nop
  fe:	1800                	addi	s0,sp,48
  beq a0,a1,bss_done
 100:	0000                	unimp
 102:	0100                	addi	s0,sp,128
  sw zero,0(a0)
 104:	3a08050b          	0x3a08050b
  add a0,a0,4
 108:	0001                	nop
 10a:	1800                	addi	s0,sp,48
  j bss_loop
 10c:	0000                	unimp
 10e:	0700                	addi	s0,sp,896
  li a0, 0x880  //880 enable timer + external interrupt sources (until mstatus.MIE is set, they will never trigger an interrupt)
 110:	0161                	addi	sp,sp,24
 112:	0000                	unimp
 114:	012c                	addi	a1,sp,136
 116:	0000                	unimp
  csrw mie,a0
 118:	0030                	addi	a2,sp,8
 11a:	0000                	unimp
  call main
 11c:	08024a03          	lbu	s4,128(tp) # 80 <trap_entry+0x60>
  j infinit_loop
 120:	0174                	addi	a3,sp,140
 122:	0000                	unimp
}
 124:	002d                	c.nop	11
 126:	0000                	unimp
	return MMPTR(a);
 128:	6a08                	flw	fa0,16(a2)
 12a:	0001                	nop
	MMPTR(a) = v;
 12c:	1800                	addi	s0,sp,48
 12e:	0000                	unimp
	return MMPTR(a);
 130:	0000                	unimp
 132:	0000                	unimp
    while (uart_txfull_read());      // Wait until TX FIFO not full
 134:	6909                	lui	s2,0x2
 136:	01007273          	csrrci	tp,0x10,0
	MMPTR(a) = v;
 13a:	0604                	addi	s1,sp,768
 13c:	0124                	addi	s1,sp,136
 13e:	0000                	unimp
 140:	0004                	0x4
 142:	0000                	unimp
 144:	9c01                	0x9c01
 146:	170a                	slli	a4,a4,0x22
 148:	003d                	c.nop	15
 14a:	0300                	addi	s0,sp,384
 14c:	184c                	addi	a1,sp,52
 14e:	0000007b          	0x7b
 152:	2c890b03          	lb	s6,712(s2) # 22c8 <_erodata+0x2188>
 156:	0000                	unimp
 158:	03144903          	lbu	s2,49(s0) # ffff8031 <_fstack+0xefff0031>
 15c:	0145                	addi	sp,sp,17
 15e:	0000                	unimp
 160:	760c                	flw	fa1,40(a2)
 162:	0300                	addi	s0,sp,384
 164:	2d49                	jal	7f6 <_erodata+0x6b6>
 166:	0000007b          	0x7b
 16a:	0d00                	addi	s0,sp,656
 16c:	2d32                	fld	fs10,264(sp)
 16e:	0000                	unimp
 170:	3402                	fld	fs0,32(sp)
 172:	581d                	li	a6,-25
 174:	0000                	unimp
 176:	0300                	addi	s0,sp,384
 178:	0161                	addi	sp,sp,24
 17a:	0000                	unimp
 17c:	610c                	flw	fa1,0(a0)
 17e:	0200                	addi	s0,sp,256
 180:	3b34                	fld	fa3,112(a4)
 182:	0058                	addi	a4,sp,4
 184:	0000                	unimp
 186:	0e00                	addi	s0,sp,784
 188:	1895                	addi	a7,a7,-27
 18a:	0000                	unimp
 18c:	2f02                	fld	ft10,0(sp)
 18e:	0314                	addi	a3,sp,384
 190:	760c                	flw	fa1,40(a2)
 192:	0200                	addi	s0,sp,256
 194:	0058332f          	0x58332f
 198:	0000                	unimp
 19a:	610c                	flw	fa1,0(a0)
 19c:	0200                	addi	s0,sp,256
 19e:	0058442f          	0x58442f
 1a2:	0000                	unimp
	...

Disassembly of section .debug_abbrev:

00000000 <.debug_abbrev>:
  j crt_init
   0:	1101                	addi	sp,sp,-32
   2:	1000                	addi	s0,sp,32
  nop
   4:	1106                	slli	sp,sp,0x21
   6:	1201                	addi	tp,tp,-32
  nop
   8:	0301                	addi	t1,t1,0
   a:	1b0e                	slli	s6,s6,0x23
  nop
   c:	250e                	fld	fa0,192(sp)
   e:	130e                	slli	t1,t1,0x23
  nop
  10:	0005                	c.nop	1
  12:	0000                	unimp
  nop
  14:	1101                	addi	sp,sp,-32
  16:	2501                	jal	616 <_erodata+0x4d6>
  nop
  18:	130e                	slli	t1,t1,0x23
  1a:	1b0e030b          	0x1b0e030b
  nop
  1e:	550e                	lw	a0,224(sp)
  sw x1,  - 1*4(sp)
  20:	10011117          	auipc	sp,0x10011
  sw x5,  - 2*4(sp)
  24:	17429917          	auipc	s2,0x17429
  sw x6,  - 3*4(sp)
  28:	0000                	unimp
  2a:	2402                	fld	fs0,0(sp)
  sw x7,  - 4*4(sp)
  2c:	0b00                	addi	s0,sp,400
  2e:	030b3e0b          	0x30b3e0b
  sw x10, - 5*4(sp)
  32:	000e                	c.slli	zero,0x3
  sw x11, - 6*4(sp)
  34:	0300                	addi	s0,sp,384
  36:	0016                	c.slli	zero,0x5
  sw x12, - 7*4(sp)
  38:	0b3a0e03          	lb	t3,179(s4)
  sw x13, - 8*4(sp)
  3c:	0b390b3b          	0xb390b3b
  sw x14, - 9*4(sp)
  40:	1349                	addi	t1,t1,-14
  42:	0000                	unimp
  sw x15, -10*4(sp)
  44:	2404                	fld	fs1,8(s0)
  46:	0b00                	addi	s0,sp,400
  sw x16, -11*4(sp)
  48:	030b3e0b          	0x30b3e0b
  sw x17, -12*4(sp)
  4c:	0008                	0x8
  4e:	0500                	addi	s0,sp,640
  sw x28, -13*4(sp)
  50:	012e                	slli	sp,sp,0xb
  52:	0e03193f 0b3b0b3a 	0xb3b0b3a0e03193f
  sw x30, -15*4(sp)
  5a:	0b39                	addi	s6,s6,14
  sw x31, -16*4(sp)
  5c:	1349                	addi	t1,t1,-14
  5e:	0111                	addi	sp,sp,4
  addi sp,sp,-16*4
  60:	0612                	slli	a2,a2,0x4
  62:	1840                	addi	s0,sp,52
  call isr
  64:	01194297          	auipc	t0,0x1194
  lw x1 , 15*4(sp)
  68:	06000013          	li	zero,96
  lw x5,  14*4(sp)
  6c:	011d                	addi	sp,sp,7
  6e:	1331                	addi	t1,t1,-20
  lw x6,  13*4(sp)
  70:	0152                	slli	sp,sp,0x14
  72:	1755                	addi	a4,a4,-11
  lw x7,  12*4(sp)
  74:	0b58                	addi	a4,sp,404
  76:	0b59                	addi	s6,s6,22
  lw x10, 11*4(sp)
  78:	13010b57          	0x13010b57
  lw x11, 10*4(sp)
  7c:	0000                	unimp
  7e:	31011d07          	0x31011d07
  lw x12,  9*4(sp)
  82:	55015213          	0x55015213
  lw x13,  8*4(sp)
  86:	590b5817          	auipc	a6,0x590b5
  lw x14,  7*4(sp)
  8a:	000b570b          	0xb570b
  lw x15,  6*4(sp)
  8e:	0800                	addi	s0,sp,16
  lw x16,  5*4(sp)
  90:	0005                	c.nop	1
  92:	1331                	addi	t1,t1,-20
  lw x17,  4*4(sp)
  94:	1702                	slli	a4,a4,0x20
  96:	0000                	unimp
  lw x28,  3*4(sp)
  98:	2e09                	jal	3aa <_erodata+0x26a>
  9a:	3f00                	fld	fs0,56(a4)
  lw x29,  2*4(sp)
  9c:	0319                	addi	t1,t1,6
  9e:	3a08                	fld	fa0,48(a2)
  lw x30,  1*4(sp)
  a0:	390b3b0b          	0x390b3b0b
  lw x31,  0*4(sp)
  a4:	1119270b          	0x1119270b
  addi sp,sp,16*4
  a8:	1201                	addi	tp,tp,-32
  aa:	4006                	0x4006
  mret
  ac:	9718                	0x9718
  ae:	1942                	slli	s2,s2,0x30
  la sp, _fstack
  b0:	0000                	unimp
  b2:	2e0a                	fld	ft8,128(sp)
  b4:	0300                	addi	s0,sp,384
  b6:	3a0e                	fld	fs4,224(sp)
  la a0, trap_entry
  b8:	390b3b0b          	0x390b3b0b
  bc:	4919270b          	0x4919270b
  csrw mtvec, a0
  c0:	000b2013          	slti	zero,s6,0
  la a0, _fdata
  c4:	0b00                	addi	s0,sp,400
  c6:	012e                	slli	sp,sp,0xb
  c8:	0b3a0e03          	lb	t3,179(s4)
  la a1, _edata
  cc:	0b390b3b          	0xb390b3b
  d0:	0b201927          	0xb201927
  la a2, _fdata_rom
  d4:	1301                	addi	t1,t1,-32
  d6:	0000                	unimp
  beq a0,a1,data_done
  d8:	050c                	addi	a1,sp,640
  da:	0300                	addi	s0,sp,384
  lw a3,0(a2)
  dc:	3a08                	fld	fa0,48(a2)
  de:	390b3b0b          	0x390b3b0b
  sw a3,0(a0)
  e2:	0013490b          	0x13490b
  add a0,a0,4
  e6:	0d00                	addi	s0,sp,656
  add a2,a2,4
  e8:	012e                	slli	sp,sp,0xb
  ea:	0b3a0e03          	lb	t3,179(s4)
  j data_loop
  ee:	0b390b3b          	0xb390b3b
  la a0, _fbss
  f2:	13491927          	0x13491927
  f6:	0b20                	addi	s0,sp,408
  la a1, _ebss
  f8:	1301                	addi	t1,t1,-32
  fa:	0000                	unimp
  fc:	2e0e                	fld	ft8,192(sp)
  fe:	0301                	addi	t1,t1,0
  beq a0,a1,bss_done
 100:	3a0e                	fld	fs4,224(sp)
 102:	390b3b0b          	0x390b3b0b
  sw zero,0(a0)
 106:	2019270b          	0x2019270b
  add a0,a0,4
 10a:	0000000b          	0xb

Disassembly of section .debug_aranges:

00000000 <.debug_aranges>:
  j crt_init
   0:	001c                	0x1c
   2:	0000                	unimp
  nop
   4:	0002                	c.slli64	zero
   6:	0000                	unimp
  nop
   8:	0000                	unimp
   a:	0004                	0x4
	...
  nop
  14:	0124                	addi	s1,sp,136
	...
  nop
  1e:	0000                	unimp
  sw x1,  - 1*4(sp)
  20:	0024                	addi	s1,sp,8
  22:	0000                	unimp
  sw x5,  - 2*4(sp)
  24:	0002                	c.slli64	zero
  26:	0026                	c.slli	zero,0x9
  sw x6,  - 3*4(sp)
  28:	0000                	unimp
  2a:	0004                	0x4
  sw x7,  - 4*4(sp)
  2c:	0000                	unimp
  2e:	0000                	unimp
  sw x10, - 5*4(sp)
  30:	0124                	addi	s1,sp,136
  32:	0000                	unimp
  sw x11, - 6*4(sp)
  34:	0004                	0x4
  36:	0000                	unimp
  sw x12, - 7*4(sp)
  38:	0128                	addi	a0,sp,136
  3a:	0000                	unimp
  sw x13, - 8*4(sp)
  3c:	0018                	0x18
	...

Disassembly of section .debug_str:

00000000 <.debug_str>:
  j crt_init
       0:	6d6f682f          	0x6d6f682f
  nop
       4:	2f65                	jal	7bc <_erodata+0x67c>
       6:	6974                	flw	fa3,84(a0)
  nop
       8:	7262                	flw	ft4,56(sp)
       a:	6861                	lui	a6,0x18
  nop
       c:	6d69                	lui	s10,0x1a
       e:	6369766f          	jal	a2,97644 <_erodata+0x97504>
  nop
      12:	6f72702f          	0x6f72702f
  nop
      16:	656a                	flw	fa0,152(sp)
  nop
      18:	2f737463          	bgeu	t1,s7,300 <_erodata+0x1c0>
  nop
      1c:	6562                	flw	fa0,24(sp)
      1e:	7274                	flw	fa3,100(a2)
  sw x1,  - 1*4(sp)
      20:	7375                	lui	t1,0xffffd
      22:	6574                	flw	fa3,76(a0)
  sw x5,  - 2*4(sp)
      24:	2d64                	fld	fs1,216(a0)
      26:	2f636f73          	csrrsi	t5,0x2f6,6
  sw x6,  - 3*4(sp)
      2a:	6564                	flw	fs1,76(a0)
  sw x7,  - 4*4(sp)
      2c:	7370                	flw	fa2,100(a4)
      2e:	74696c2f          	0x74696c2f
  sw x10, - 5*4(sp)
      32:	7865                	lui	a6,0xffff9
  sw x11, - 6*4(sp)
      34:	74696c2f          	0x74696c2f
  sw x12, - 7*4(sp)
      38:	7865                	lui	a6,0xffff9
      3a:	636f732f          	0x636f732f
  sw x13, - 8*4(sp)
      3e:	726f632f          	0x726f632f
  sw x14, - 9*4(sp)
      42:	7365                	lui	t1,0xffff9
  sw x15, -10*4(sp)
      44:	7570632f          	0x7570632f
  sw x16, -11*4(sp)
      48:	7865762f          	0x7865762f
  sw x17, -12*4(sp)
      4c:	6972                	flw	fs2,28(sp)
      4e:	2f766373          	csrrsi	t1,0x2f7,12
  sw x28, -13*4(sp)
      52:	30747263          	bgeu	s0,t2,356 <_erodata+0x216>
  sw x29, -14*4(sp)
      56:	532e                	lw	t1,232(sp)
  sw x30, -15*4(sp)
      58:	2f00                	fld	fs0,24(a4)
      5a:	6f68                	flw	fa0,92(a4)
  sw x31, -16*4(sp)
      5c:	656d                	lui	a0,0x1b
      5e:	6269742f          	0x6269742f
  addi sp,sp,-16*4
      62:	6172                	flw	ft2,28(sp)
  call isr
      64:	6968                	flw	fa0,84(a0)
      66:	6f6d                	lui	t5,0x1b
  lw x1 , 15*4(sp)
      68:	6976                	flw	fs2,92(sp)
      6a:	72702f63          	0x72702f63
  lw x5,  14*4(sp)
      6e:	63656a6f          	jal	s4,566a4 <_erodata+0x56564>
  lw x6,  13*4(sp)
      72:	7374                	flw	fa3,100(a4)
  lw x7,  12*4(sp)
      74:	7465622f          	0x7465622f
  lw x10, 11*4(sp)
      78:	7572                	flw	fa0,60(sp)
      7a:	64657473          	csrrci	s0,0x646,10
  lw x11, 10*4(sp)
      7e:	732d                	lui	t1,0xfffeb
  lw x12,  9*4(sp)
      80:	622f636f          	jal	t1,f66a2 <_erodata+0xf6562>
  lw x13,  8*4(sp)
      84:	6975                	lui	s2,0x1d
      86:	646c                	flw	fa1,76(s0)
  lw x14,  7*4(sp)
      88:	666f732f          	0x666f732f
  lw x15,  6*4(sp)
      8c:	7774                	flw	fa3,108(a4)
      8e:	7261                	lui	tp,0xffff8
  lw x16,  5*4(sp)
      90:	2f65                	jal	848 <_erodata+0x708>
      92:	6564                	flw	fs1,76(a0)
  lw x17,  4*4(sp)
      94:	6f6d                	lui	t5,0x1b
      96:	4700                	lw	s0,8(a4)
  lw x28,  3*4(sp)
      98:	554e                	lw	a0,240(sp)
      9a:	4120                	lw	s0,64(a0)
  lw x29,  2*4(sp)
      9c:	2e322053          	0x2e322053
  lw x30,  1*4(sp)
      a0:	312e3533          	0x312e3533
  lw x31,  0*4(sp)
      a4:	5f00                	lw	s0,56(a4)
      a6:	455f 4358 5045      	0x50454358455f
  mret
      ac:	4954                	lw	a3,20(a0)
      ae:	20534e4f          	fnmadd.s	ft8,ft6,ft5,ft4,rmm
  la sp, _fstack
      b2:	0031                	c.nop	12
      b4:	5f5f 4953 5f47      	0x5f4749535f5f
  la a0, trap_entry
      ba:	5441                	li	s0,-16
      bc:	43494d4f          	fnmadd.d	fs10,fs2,fs4,fs0,rmm
  csrw mtvec, a0
      c0:	4d5f 5841 5f5f      	0x5f5f58414d5f
  la a0, _fdata
      c6:	3020                	fld	fs0,96(s0)
      c8:	3778                	fld	fa4,232(a4)
      ca:	6666                	flw	fa2,88(sp)
  la a1, _edata
      cc:	6666                	flw	fa2,88(sp)
      ce:	6666                	flw	fa2,88(sp)
      d0:	0066                	c.slli	zero,0x19
      d2:	5f5f 4c46 3654      	0x36544c465f5f
  beq a0,a1,data_done
      d8:	5f34                	lw	a3,120(a4)
      da:	4148                	lw	a0,4(a0)
  lw a3,0(a2)
      dc:	55515f53          	0x55515f53
  sw a3,0(a0)
      e0:	4549                	li	a0,18
      e2:	5f54                	lw	a3,60(a4)
  add a0,a0,4
      e4:	414e                	lw	sp,208(sp)
      e6:	5f4e                	lw	t5,240(sp)
  add a2,a2,4
      e8:	205f 0031 5f5f      	0x5f5f0031205f
  j data_loop
      ee:	4c46                	lw	s8,80(sp)
  la a0, _fbss
      f0:	3354                	fld	fa3,160(a4)
      f2:	5f32                	lw	t5,44(sp)
      f4:	4148                	lw	a0,4(a0)
      f6:	4e495f53          	0x4e495f53
  la a1, _ebss
      fa:	4946                	lw	s2,80(sp)
      fc:	494e                	lw	s2,208(sp)
      fe:	5954                	lw	a3,52(a0)
  beq a0,a1,bss_done
     100:	5f5f 3120 4300      	0x430031205f5f
  sw zero,0(a0)
     106:	49464e4f          	fnmadd.s	ft8,fa2,fs4,fs1,rmm
  add a0,a0,4
     10a:	50435f47          	fmsub.s	ft10,ft6,ft4,fa0,unknown
  j bss_loop
     10e:	5f55                	li	t5,-11
  li a0, 0x880  //880 enable timer + external interrupt sources (until mstatus.MIE is set, they will never trigger an interrupt)
     110:	414e                	lw	sp,208(sp)
     112:	454d                	li	a0,19
     114:	2220                	fld	fs0,64(a2)
     116:	6576                	flw	fa0,92(sp)
  csrw mie,a0
     118:	7278                	flw	fa4,100(a2)
     11a:	7369                	lui	t1,0xffffa
  call main
     11c:	00227663          	bgeu	tp,sp,128 <main>
  j infinit_loop
     120:	5f5f 4955 544e      	0x544e49555f5f
}
     126:	465f 5341 3854      	0x38545341465f
     12c:	545f 5059 5f45      	0x5f455059545f
	return MMPTR(a);
     132:	205f 6e75 6973      	0x69736e75205f
	MMPTR(a) = v;
     138:	64656e67          	0x64656e67
    while (uart_txfull_read());      // Wait until TX FIFO not full
     13c:	6920                	flw	fs0,80(a0)
     13e:	746e                	flw	fs0,248(sp)
     140:	5f00                	lw	s0,56(a4)
     142:	465f 544c 3436      	0x3436544c465f
     148:	4d5f 5841 455f      	0x455f58414d5f
     14e:	5058                	lw	a4,36(s0)
     150:	5f5f 3120 3230      	0x323031205f5f
     156:	0034                	addi	a3,sp,8
     158:	5f5f 4c46 5f54      	0x5f544c465f5f
     15e:	494d                	li	s2,19
     160:	5f4e                	lw	t5,240(sp)
     162:	3031                	jal	fffff96e <_fstack+0xefff796e>
     164:	455f 5058 5f5f      	0x5f5f5058455f
     16a:	2820                	fld	fs0,80(s0)
     16c:	332d                	jal	fffffe96 <_fstack+0xefff7e96>
     16e:	5f002937          	lui	s2,0x5f002
     172:	465f 544c 3436      	0x3436544c465f
     178:	5f58                	lw	a4,60(a4)
     17a:	4544                	lw	s1,12(a0)
     17c:	4f4e                	lw	t5,208(sp)
     17e:	4d52                	lw	s10,20(sp)
     180:	4d5f 4e49 5f5f      	0x5f5f4e494d5f
     186:	3620                	fld	fs0,104(a2)
     188:	342e                	fld	fs0,232(sp)
     18a:	37313537          	lui	a0,0x37313
     18e:	3135                	jal	fffffdba <_fstack+0xefff7dba>
     190:	3931                	jal	fffffdac <_fstack+0xefff7dac>
     192:	3334                	fld	fa3,96(a4)
     194:	3038                	fld	fa4,96(s0)
     196:	3532                	fld	fa0,296(sp)
     198:	3131                	jal	fffffda4 <_fstack+0xefff7da4>
     19a:	3930                	fld	fa2,112(a0)
     19c:	3432                	fld	fs0,296(sp)
     19e:	3334                	fld	fa3,96(a4)
     1a0:	3938                	fld	fa4,112(a0)
     1a2:	3835                	jal	fffff9de <_fstack+0xefff79de>
     1a4:	3232                	fld	ft4,296(sp)
     1a6:	36343637          	lui	a2,0x36343
     1aa:	3535                	jal	ffffffd6 <_fstack+0xefff7fd6>
     1ac:	2d65                	jal	864 <_erodata+0x724>
     1ae:	3934                	fld	fa3,112(a0)
     1b0:	3636                	fld	fa2,360(sp)
     1b2:	3646                	fld	fa2,112(sp)
     1b4:	7834                	flw	fa3,112(s0)
     1b6:	5f00                	lw	s0,56(a4)
     1b8:	685f 7661 5f65      	0x5f657661685f
     1be:	6f6c                	flw	fa1,92(a4)
     1c0:	676e                	flw	fa4,216(sp)
     1c2:	31203233          	0x31203233
     1c6:	5f00                	lw	s0,56(a4)
     1c8:	645f 6365 616c      	0x616c6365645f
     1ce:	6572                	flw	fa0,28(sp)
     1d0:	655f 7478 7265      	0x72657478655f
     1d6:	5f6e                	lw	t5,248(sp)
     1d8:	6e69                	lui	t3,0x1a
     1da:	696c                	flw	fa1,84(a0)
     1dc:	656e                	flw	fa0,216(sp)
     1de:	7428                	flw	fa0,104(s0)
     1e0:	7079                	c.lui	zero,0xffffe
     1e2:	2965                	jal	69a <_erodata+0x55a>
     1e4:	6520                	flw	fs0,72(a0)
     1e6:	7478                	flw	fa4,108(s0)
     1e8:	7265                	lui	tp,0xffff9
     1ea:	206e                	fld	ft0,216(sp)
     1ec:	5f5f 6e69 696c      	0x696c6e695f5f
     1f2:	656e                	flw	fa0,216(sp)
     1f4:	7420                	flw	fs0,104(s0)
     1f6:	7079                	c.lui	zero,0xffffe
     1f8:	2065                	jal	2a0 <_erodata+0x160>
     1fa:	5f5f 7461 7274      	0x727474615f5f
     200:	6269                	lui	tp,0x1a
     202:	7475                	lui	s0,0xffffd
     204:	2865                	jal	2bc <_erodata+0x17c>
     206:	6728                	flw	fa0,72(a4)
     208:	756e                	flw	fa0,248(sp)
     20a:	695f 6c6e 6e69      	0x6e696c6e695f
     210:	2c65                	jal	4c8 <_erodata+0x388>
     212:	6120                	flw	fs0,64(a0)
     214:	776c                	flw	fa1,108(a4)
     216:	7961                	lui	s2,0xffff8
     218:	6e695f73          	csrrwi	t5,0x6e6,18
     21c:	696c                	flw	fa1,84(a0)
     21e:	656e                	flw	fa0,216(sp)
     220:	2929                	jal	63a <_erodata+0x4fa>
     222:	5f00                	lw	s0,56(a4)
     224:	465f 544c 3233      	0x3233544c465f
     22a:	5f58                	lw	a4,60(a4)
     22c:	414d                	li	sp,19
     22e:	5f58                	lw	a4,60(a4)
     230:	5845                	li	a6,-15
     232:	5f50                	lw	a2,60(a4)
     234:	205f 3031 3432      	0x34323031205f
     23a:	5f00                	lw	s0,56(a4)
     23c:	495f 544e 465f      	0x465f544e495f
     242:	5341                	li	t1,-16
     244:	3154                	fld	fa3,160(a0)
     246:	5f36                	lw	t5,108(sp)
     248:	54444957          	0x54444957
     24c:	5f48                	lw	a0,60(a4)
     24e:	205f 3233 6d00      	0x6d003233205f
     254:	6961                	lui	s2,0x18
     256:	2e6e                	fld	ft8,216(sp)
     258:	4e490063          	beq	s2,tp,738 <_erodata+0x5f8>
     25c:	4d54                	lw	a3,28(a0)
     25e:	5841                	li	a6,-16
     260:	4d5f 4e49 2820      	0x28204e494d5f
     266:	492d                	li	s2,11
     268:	544e                	lw	s0,240(sp)
     26a:	414d                	li	sp,19
     26c:	5f58                	lw	a4,60(a4)
     26e:	414d                	li	sp,19
     270:	2058                	fld	fa4,128(s0)
     272:	202d                	jal	29c <_erodata+0x15c>
     274:	2931                	jal	690 <_erodata+0x550>
     276:	5f00                	lw	s0,56(a4)
     278:	465f 544c 3436      	0x3436544c465f
     27e:	5f58                	lw	a4,60(a4)
     280:	5045                	c.li	zero,-15
     282:	4f4c4953          	0x4f4c4953
     286:	5f4e                	lw	t5,240(sp)
     288:	205f 2e31 3239      	0x32392e31205f
     28e:	3935                	jal	fffffeca <_fstack+0xefff7eca>
     290:	3932                	fld	fs2,296(sp)
     292:	3439                	jal	fffffca0 <_fstack+0xefff7ca0>
     294:	3334                	fld	fa3,96(a4)
     296:	3738                	fld	fa4,104(a4)
     298:	3332                	fld	ft6,296(sp)
     29a:	3835                	jal	fffffad6 <_fstack+0xefff7ad6>
     29c:	3335                	jal	ffffffc8 <_fstack+0xefff7fc8>
     29e:	3530                	fld	fa2,104(a0)
     2a0:	3935                	jal	fffffedc <_fstack+0xefff7edc>
     2a2:	34393737          	lui	a4,0x34393
     2a6:	3532                	fld	fa0,296(sp)
     2a8:	3438                	fld	fa4,104(s0)
     2aa:	3239                	jal	fffffbb8 <_fstack+0xefff7bb8>
     2ac:	65323337          	lui	t1,0x65323
     2b0:	332d                	jal	ffffffda <_fstack+0xefff7fda>
     2b2:	4634                	lw	a3,72(a2)
     2b4:	3436                	fld	fs0,360(sp)
     2b6:	0078                	addi	a4,sp,12
     2b8:	5f5f 4244 5f4c      	0x5f4c42445f5f
     2be:	4544                	lw	s1,12(a0)
     2c0:	4f4e                	lw	t5,208(sp)
     2c2:	4d52                	lw	s10,20(sp)
     2c4:	4d5f 4e49 5f5f      	0x5f5f4e494d5f
     2ca:	2820                	fld	fs0,80(s0)
     2cc:	6428                	flw	fa0,72(s0)
     2ce:	6c62756f          	jal	a0,27994 <_erodata+0x27854>
     2d2:	2965                	jal	78a <_erodata+0x64a>
     2d4:	2e34                	fld	fa3,88(a2)
     2d6:	3439                	jal	fffffce4 <_fstack+0xefff7ce4>
     2d8:	3630                	fld	fa2,104(a2)
     2da:	3635                	jal	fffffe06 <_fstack+0xefff7e06>
     2dc:	3534                	fld	fa3,104(a0)
     2de:	3438                	fld	fa4,104(s0)
     2e0:	3231                	jal	fffffbec <_fstack+0xefff7bec>
     2e2:	3634                	fld	fa3,104(a2)
     2e4:	3435                	jal	fffffd10 <_fstack+0xefff7d10>
     2e6:	3134                	fld	fa3,96(a0)
     2e8:	36353637          	lui	a2,0x36353
     2ec:	3738                	fld	fa4,104(a4)
     2ee:	3239                	jal	fffffbfc <_fstack+0xefff7bfc>
     2f0:	3638                	fld	fa4,104(a2)
     2f2:	3238                	fld	fa4,96(a2)
     2f4:	3132                	fld	ft2,296(sp)
     2f6:	65323733          	0x65323733
     2fa:	332d                	jal	24 <trap_entry+0x4>
     2fc:	3432                	fld	fs0,296(sp)
     2fe:	294c                	fld	fa1,144(a0)
     300:	7300                	flw	fs0,32(a4)
     302:	6f68                	flw	fa0,92(a4)
     304:	7472                	flw	fs0,60(sp)
     306:	5700                	lw	s0,40(a4)
     308:	4e49                	li	t3,18
     30a:	5f54                	lw	a3,60(a4)
     30c:	494d                	li	s2,19
     30e:	204e                	fld	ft0,208(sp)
     310:	5f28                	lw	a0,120(a4)
     312:	575f 4e49 5f54      	0x5f544e49575f
     318:	494d                	li	s2,19
     31a:	5f4e                	lw	t5,240(sp)
     31c:	295f 4300 4e4f      	0x4e4f4300295f
     322:	4946                	lw	s2,80(sp)
     324:	50435f47          	fmsub.s	ft10,ft6,ft4,fa0,unknown
     328:	5f55                	li	t5,-11
     32a:	5954                	lw	a3,52(a0)
     32c:	4550                	lw	a2,12(a0)
     32e:	565f 5845 4952      	0x49525845565f
     334:	20564353          	0x20564353
     338:	5f00                	lw	s0,56(a4)
     33a:	485f 5641 5f45      	0x5f455641485f
     340:	4f4c                	lw	a1,28(a4)
     342:	474e                	lw	a4,208(sp)
     344:	445f 554f 4c42      	0x4c42554f445f
     34a:	5f45                	li	t5,-15
     34c:	414d                	li	sp,19
     34e:	4854                	lw	a3,20(s0)
     350:	0020                	addi	s0,sp,8
     352:	5f5f 4c46 3354      	0x33544c465f5f
     358:	5f32                	lw	t5,44(sp)
     35a:	414d                	li	sp,19
     35c:	544e                	lw	s0,240(sp)
     35e:	445f 4749 5f5f      	0x5f5f4749445f
     364:	3220                	fld	fs0,96(a2)
     366:	0034                	addi	a3,sp,8
     368:	5f5f 6577 6b61      	0x6b6165775f5f
     36e:	725f 6665 7265      	0x72656665725f
     374:	6e65                	lui	t3,0x19
     376:	73286563          	bltu	a6,s2,aa0 <_erodata+0x960>
     37a:	6d79                	lui	s10,0x1e
     37c:	612c                	flw	fa1,64(a0)
     37e:	696c                	flw	fa1,84(a0)
     380:	7361                	lui	t1,0xffff8
     382:	296d7973          	csrrci	s2,0x296,26
     386:	6520                	flw	fs0,72(a0)
     388:	7478                	flw	fa4,108(s0)
     38a:	7265                	lui	tp,0xffff9
     38c:	206e                	fld	ft0,216(sp)
     38e:	5f5f 7974 6570      	0x657079745f5f
     394:	2820666f          	jal	a2,6616 <_erodata+0x64d6>
     398:	296d7973          	csrrci	s2,0x296,26
     39c:	6120                	flw	fs0,64(a0)
     39e:	696c                	flw	fa1,84(a0)
     3a0:	7361                	lui	t1,0xffff8
     3a2:	206d7973          	csrrci	s2,0x206,26
     3a6:	5f5f 7461 7274      	0x727474615f5f
     3ac:	6269                	lui	tp,0x1a
     3ae:	7475                	lui	s0,0xffffd
     3b0:	5f65                	li	t5,-7
     3b2:	205f 2828 5f5f      	0x5f5f2828205f
     3b8:	6b616577          	0x6b616577
     3bc:	5f5f 202c 5f5f      	0x5f5f202c5f5f
     3c2:	6c61                	lui	s8,0x18
     3c4:	6169                	addi	sp,sp,208
     3c6:	205f5f73          	csrrwi	t5,0x205,30
     3ca:	5f28                	lw	a0,120(a4)
     3cc:	535f 5254 4e49      	0x4e495254535f
     3d2:	79732847          	fmsub.s	fa6,ft6,fs7,fa5,rdn
     3d6:	296d                	jal	890 <_erodata+0x750>
     3d8:	2929                	jal	7f2 <_erodata+0x6b2>
     3da:	0029                	c.nop	10
     3dc:	4e49                	li	t3,18
     3de:	5f54                	lw	a3,60(a4)
     3e0:	454c                	lw	a1,12(a0)
     3e2:	5341                	li	t1,-16
     3e4:	3654                	fld	fa3,168(a2)
     3e6:	5f34                	lw	a3,120(a4)
     3e8:	494d                	li	s2,19
     3ea:	204e                	fld	ft0,208(sp)
     3ec:	2d28                	fld	fa0,88(a0)
     3ee:	5f5f 4e49 5f54      	0x5f544e495f5f
     3f4:	454c                	lw	a1,12(a0)
     3f6:	5341                	li	t1,-16
     3f8:	3654                	fld	fa3,168(a2)
     3fa:	5f34                	lw	a3,120(a4)
     3fc:	414d                	li	sp,19
     3fe:	5f58                	lw	a4,60(a4)
     400:	205f 202d 2931      	0x2931202d205f
     406:	5f00                	lw	s0,56(a4)
     408:	465f 544c 3231      	0x3231544c465f
     40e:	5f38                	lw	a4,120(a4)
     410:	414d                	li	sp,19
     412:	544e                	lw	s0,240(sp)
     414:	445f 4749 5f5f      	0x5f5f4749445f
     41a:	3120                	fld	fs0,96(a0)
     41c:	3331                	jal	128 <main>
     41e:	5f00                	lw	s0,56(a4)
     420:	755f 6573 2064      	0x20646573755f
     426:	5f5f 7461 7274      	0x727474615f5f
     42c:	6269                	lui	tp,0x1a
     42e:	7475                	lui	s0,0xffffd
     430:	5f65                	li	t5,-7
     432:	285f 5f28 755f      	0x755f5f28285f
     438:	5f646573          	csrrsi	a0,0x5f6,8
     43c:	295f 0029 5f5f      	0x5f5f0029295f
     442:	5f535953          	0x5f535953
     446:	464e4f43          	fmadd.q	ft10,ft8,ft4,fs0,rmm
     44a:	4749                	li	a4,18
     44c:	485f 5f5f 0020      	0x205f5f485f
     452:	5f525343          	fmadd.q	ft6,ft4,fs5,fa1,unknown
     456:	4155                	li	sp,21
     458:	5452                	lw	s0,52(sp)
     45a:	455f 5f56 4e45      	0x4e455f56455f
     460:	4241                	li	tp,16
     462:	454c                	lw	a1,12(a0)
     464:	535f 5a49 2045      	0x20455a49535f
     46a:	0031                	c.nop	12
     46c:	5f5f 444c 4c42      	0x4c42444c5f5f
     472:	4d5f 4e41 5f54      	0x5f544e414d5f
     478:	4944                	lw	s1,20(a0)
     47a:	205f5f47          	fmsub.s	ft10,ft10,ft5,ft4,unknown
     47e:	3131                	jal	8a <trap_entry+0x6a>
     480:	53430033          	0x53430033
     484:	5f52                	lw	t5,52(sp)
     486:	4155                	li	sp,21
     488:	5452                	lw	s0,52(sp)
     48a:	545f 4558 504d      	0x504d4558545f
     490:	5954                	lw	a3,52(a0)
     492:	535f 5a49 2045      	0x20455a49535f
     498:	0031                	c.nop	12
     49a:	5f5f 616d 6c6c      	0x6c6c616d5f5f
     4a0:	6c5f636f          	jal	t1,f7364 <_erodata+0xf7224>
     4a4:	6b69                	lui	s6,0x1a
     4a6:	2065                	jal	54e <_erodata+0x40e>
     4a8:	5f5f 616d 6c6c      	0x6c6c616d5f5f
     4ae:	6c5f636f          	jal	t1,f7372 <_erodata+0xf7232>
     4b2:	6b69                	lui	s6,0x1a
     4b4:	5f65                	li	t5,-7
     4b6:	68746977          	0x68746977
     4ba:	665f 6572 2865      	0x28656572665f
     4c0:	7266                	flw	ft4,120(sp)
     4c2:	6565                	lui	a0,0x19
     4c4:	202c                	fld	fa1,64(s0)
     4c6:	2931                	jal	8e2 <_erodata+0x7a2>
     4c8:	5f00                	lw	s0,56(a4)
     4ca:	695f 746e 3032      	0x3032746e695f
     4d0:	5f5f 5500 4e49      	0x4e4955005f5f
     4d6:	3654                	fld	fa3,168(a2)
     4d8:	5f34                	lw	a3,120(a4)
     4da:	29782843          	fmadd.s	fa6,fa6,fs7,ft5,rdn
     4de:	5f20                	lw	s0,120(a4)
     4e0:	555f 4e49 3654      	0x36544e49555f
     4e6:	5f34                	lw	a3,120(a4)
     4e8:	29782843          	fmadd.s	fa6,fa6,fs7,ft5,rdn
     4ec:	5f00                	lw	s0,56(a4)
     4ee:	465f 544c 3233      	0x3233544c465f
     4f4:	5f58                	lw	a4,60(a4)
     4f6:	4544                	lw	s1,12(a0)
     4f8:	414d4943          	fmadd.s	fs2,fs10,fs4,fs0,rmm
     4fc:	5f4c                	lw	a1,60(a4)
     4fe:	4944                	lw	s1,20(a0)
     500:	205f5f47          	fmsub.s	ft10,ft10,ft5,ft4,unknown
     504:	3731                	jal	410 <_erodata+0x2d0>
     506:	5f00                	lw	s0,56(a4)
     508:	725f 7369 7663      	0x76637369725f
     50e:	635f 6f6d 6564      	0x65646f6d635f
     514:	5f6c                	lw	a1,124(a4)
     516:	656d                	lui	a0,0x1b
     518:	6c64                	flw	fs1,92(s0)
     51a:	3120776f          	jal	a4,782c <_erodata+0x76ec>
     51e:	5f00                	lw	s0,56(a4)
     520:	445f 4c42 4d5f      	0x4d5f4c42445f
     526:	4e49                	li	t3,18
     528:	455f 5058 5f5f      	0x5f5f5058455f
     52e:	2820                	fld	fs0,80(s0)
     530:	312d                	jal	15a <_erodata+0x1a>
     532:	3230                	fld	fa2,96(a2)
     534:	2931                	jal	950 <_erodata+0x810>
     536:	5f00                	lw	s0,56(a4)
     538:	4c5f 4e4f 5f47      	0x5f474e4f4c5f
     53e:	4f4c                	lw	a1,28(a4)
     540:	474e                	lw	a4,208(sp)
     542:	575f 4449 4854      	0x48544449575f
     548:	5f5f 3620 0034      	0x3436205f5f
     54e:	5f5f 4347 5f43      	0x5f4343475f5f
     554:	5441                	li	s0,-16
     556:	43494d4f          	fnmadd.d	fs10,fs2,fs4,fs0,rmm
     55a:	435f 4148 3152      	0x31524148435f
     560:	5f36                	lw	t5,108(sp)
     562:	5f54                	lw	a3,60(a4)
     564:	4f4c                	lw	a1,28(a4)
     566:	465f4b43          	fmadd.q	fs6,ft10,ft5,fs0,rmm
     56a:	4552                	lw	a0,20(sp)
     56c:	2045                	jal	60c <_erodata+0x4cc>
     56e:	0031                	c.nop	12
     570:	5f5f 4549 4545      	0x454545495f5f
     576:	4c5f 5449 4c54      	0x4c5454494c5f
     57c:	5f45                	li	t5,-15
     57e:	4e45                	li	t3,17
     580:	4944                	lw	s1,20(a0)
     582:	4e41                	li	t3,16
     584:	0020                	addi	s0,sp,8
     586:	5f5f 455a 4850      	0x4850455a5f5f
     58c:	5259                	li	tp,-10
     58e:	565f 5349 4249      	0x42495349565f
     594:	454c                	lw	a1,12(a0)
     596:	3020                	fld	fs0,96(s0)
     598:	5500                	lw	s0,40(a0)
     59a:	4e49                	li	t3,18
     59c:	3354                	fld	fa3,160(a4)
     59e:	5f32                	lw	t5,44(sp)
     5a0:	29782843          	fmadd.s	fa6,fa6,fs7,ft5,rdn
     5a4:	5f20                	lw	s0,120(a4)
     5a6:	555f 4e49 3354      	0x33544e49555f
     5ac:	5f32                	lw	t5,44(sp)
     5ae:	29782843          	fmadd.s	fa6,fa6,fs7,ft5,rdn
     5b2:	5f00                	lw	s0,56(a4)
     5b4:	465f 544c 3233      	0x3233544c465f
     5ba:	5f58                	lw	a4,60(a4)
     5bc:	414d                	li	sp,19
     5be:	5f58                	lw	a4,60(a4)
     5c0:	205f 2e31 3937      	0x39372e31205f
     5c6:	33393637          	lui	a2,0x33393
     5ca:	3331                	jal	2d6 <_erodata+0x196>
     5cc:	3834                	fld	fa3,112(s0)
     5ce:	3236                	fld	ft4,360(sp)
     5d0:	37353133          	0x37353133
     5d4:	3830                	fld	fa2,112(s0)
     5d6:	3431                	jal	ffffffe2 <_fstack+0xefff7fe2>
     5d8:	3235                	jal	ffffff04 <_fstack+0xefff7f04>
     5da:	33323437          	lui	s0,0x33323
     5de:	37313337          	lui	t1,0x37313
     5e2:	3430                	fld	fa2,104(s0)
     5e4:	65373533          	0x65373533
     5e8:	3830332b          	0x3830332b
     5ec:	3346                	fld	ft6,112(sp)
     5ee:	7832                	flw	fa6,44(sp)
     5f0:	5f00                	lw	s0,56(a4)
     5f2:	465f 544c 3231      	0x3231544c465f
     5f8:	5f38                	lw	a4,120(a4)
     5fa:	414d                	li	sp,19
     5fc:	5f58                	lw	a4,60(a4)
     5fe:	205f 2e31 3831      	0x38312e31205f
     604:	3739                	jal	512 <_erodata+0x3d2>
     606:	39343133          	0x39343133
     60a:	3335                	jal	336 <_erodata+0x1f6>
     60c:	3735                	jal	538 <_erodata+0x3f8>
     60e:	3332                	fld	ft6,296(sp)
     610:	3731                	jal	51c <_erodata+0x3dc>
     612:	3536                	fld	fa0,360(sp)
     614:	3830                	fld	fa2,112(s0)
     616:	3735                	jal	542 <_erodata+0x402>
     618:	3935                	jal	254 <_erodata+0x114>
     61a:	36363233          	0x36363233
     61e:	3832                	fld	fa6,296(sp)
     620:	3030                	fld	fa2,96(s0)
     622:	65323037          	lui	zero,0x65323
     626:	3339342b          	0x3339342b
     62a:	4632                	lw	a2,12(sp)
     62c:	3231                	jal	ffffff38 <_fstack+0xefff7f38>
     62e:	0038                	addi	a4,sp,8
     630:	5f5f 4953 455a      	0x455a49535f5f
     636:	575f464f          	fnmadd.q	fa2,ft10,fs5,fa0,rmm
     63a:	4e49                	li	t3,18
     63c:	5f54                	lw	a3,60(a4)
     63e:	5f54                	lw	a3,60(a4)
     640:	205f 0034 5f5f      	0x5f5f0034205f
     646:	6c61                	lui	s8,0x18
     648:	73796177          	0x73796177
     64c:	695f 6c6e 6e69      	0x6e696c6e695f
     652:	2065                	jal	6fa <_erodata+0x5ba>
     654:	5f5f 6e69 696c      	0x696c6e695f5f
     65a:	656e                	flw	fa0,216(sp)
     65c:	5f20                	lw	s0,120(a4)
     65e:	615f 7474 6972      	0x69727474615f
     664:	7562                	flw	fa0,56(sp)
     666:	6574                	flw	fa3,76(a0)
     668:	5f5f 2828 5f5f      	0x5f5f28285f5f
     66e:	6c61                	lui	s8,0x18
     670:	73796177          	0x73796177
     674:	695f 6c6e 6e69      	0x6e696c6e695f
     67a:	5f65                	li	t5,-7
     67c:	295f 0029 5f5f      	0x5f5f0029295f
     682:	43554e47          	fmsub.d	ft8,fa0,fs5,fs0,rmm
     686:	505f 4552 4552      	0x45524552505f
     68c:	2851                	jal	720 <_erodata+0x5e0>
     68e:	616d                	addi	sp,sp,240
     690:	2c6a                	fld	fs8,152(sp)
     692:	696d                	lui	s2,0x1b
     694:	296e                	fld	fs2,216(sp)
     696:	2820                	fld	fs0,80(s0)
     698:	5f28                	lw	a0,120(a4)
     69a:	475f 554e 5f43      	0x5f43554e475f
     6a0:	205f 3c3c 3120      	0x31203c3c205f
     6a6:	2936                	fld	fs2,328(sp)
     6a8:	2b20                	fld	fs0,80(a4)
     6aa:	5f20                	lw	s0,120(a4)
     6ac:	475f 554e 5f43      	0x5f43554e475f
     6b2:	494d                	li	s2,19
     6b4:	4f4e                	lw	t5,208(sp)
     6b6:	5f52                	lw	t5,52(sp)
     6b8:	205f 3d3e 2820      	0x28203d3e205f
     6be:	6d28                	flw	fa0,88(a0)
     6c0:	6a61                	lui	s4,0x18
     6c2:	2029                	jal	6cc <_erodata+0x58c>
     6c4:	3c3c                	fld	fa5,120(s0)
     6c6:	3120                	fld	fs0,96(a0)
     6c8:	2936                	fld	fs2,328(sp)
     6ca:	2b20                	fld	fs0,80(a4)
     6cc:	2820                	fld	fs0,80(s0)
     6ce:	696d                	lui	s2,0x1b
     6d0:	296e                	fld	fs2,216(sp)
     6d2:	0029                	c.nop	10
     6d4:	5f525343          	fmadd.q	ft6,ft4,fs5,fa1,unknown
     6d8:	4155                	li	sp,21
     6da:	5452                	lw	s0,52(sp)
     6dc:	425f 5341 2045      	0x20455341425f
     6e2:	4328                	lw	a0,64(a4)
     6e4:	425f5253          	0x425f5253
     6e8:	5341                	li	t1,-16
     6ea:	2045                	jal	78a <_erodata+0x64a>
     6ec:	7830202b          	0x7830202b
     6f0:	4c30                	lw	a2,88(s0)
     6f2:	0029                	c.nop	10
     6f4:	20554e47          	fmsub.s	ft8,fa0,ft5,ft4,rmm
     6f8:	20393943          	fmadd.s	fs2,fs2,ft3,ft4,rup
     6fc:	3031                	jal	ffffff08 <_fstack+0xefff7f08>
     6fe:	322e                	fld	ft4,232(sp)
     700:	302e                	fld	ft0,232(sp)
     702:	2d20                	fld	fs0,88(a0)
     704:	616d                	addi	sp,sp,240
     706:	6372                	flw	ft6,28(sp)
     708:	3d68                	fld	fa0,248(a0)
     70a:	7672                	flw	fa2,60(sp)
     70c:	32693233          	0x32693233
     710:	3070                	fld	fa2,224(s0)
     712:	6d5f 2d20 616d      	0x616d2d206d5f
     718:	6962                	flw	fs2,24(sp)
     71a:	693d                	lui	s2,0xf
     71c:	706c                	flw	fa1,100(s0)
     71e:	2d203233          	0x2d203233
     722:	2d203367          	0x2d203367
     726:	2d20734f          	0x2d20734f
     72a:	3d647473          	csrrci	s0,0x3d6,8
     72e:	39756e67          	0x39756e67
     732:	2039                	jal	740 <_erodata+0x600>
     734:	662d                	lui	a2,0xb
     736:	74696d6f          	jal	s10,96e7c <_erodata+0x96d3c>
     73a:	662d                	lui	a2,0xb
     73c:	6172                	flw	ft2,28(sp)
     73e:	656d                	lui	a0,0x1b
     740:	702d                	c.lui	zero,0xfffeb
     742:	746e696f          	jal	s2,e6e88 <_erodata+0xe6d48>
     746:	7265                	lui	tp,0xffff9
     748:	2d20                	fld	fs0,88(a0)
     74a:	6e66                	flw	ft8,88(sp)
     74c:	75622d6f          	jal	s10,22ea2 <_erodata+0x22d62>
     750:	6c69                	lui	s8,0x1a
     752:	6974                	flw	fa3,84(a0)
     754:	206e                	fld	ft0,216(sp)
     756:	662d                	lui	a2,0xb
     758:	6f6e                	flw	ft10,216(sp)
     75a:	732d                	lui	t1,0xfffeb
     75c:	6174                	flw	fa3,68(a0)
     75e:	702d6b63          	bltu	s10,sp,e74 <_erodata+0xd34>
     762:	6f72                	flw	ft10,28(sp)
     764:	6574                	flw	fa3,76(a0)
     766:	726f7463          	bgeu	t5,t1,e8e <_erodata+0xd4e>
     76a:	2d20                	fld	fs0,88(a0)
     76c:	6566                	flw	fa0,88(sp)
     76e:	6378                	flw	fa4,68(a4)
     770:	7065                	c.lui	zero,0xffff9
     772:	6974                	flw	fa3,84(a0)
     774:	00736e6f          	jal	t3,36f7a <_erodata+0x36e3a>
     778:	5f5f 7470 7672      	0x767274705f5f
     77e:	6c61                	lui	s8,0x18
     780:	6575                	lui	a0,0x1d
     782:	0020                	addi	s0,sp,8
     784:	5f5f 4957 544e      	0x544e49575f5f
     78a:	4d5f 4e49 5f5f      	0x5f5f4e494d5f
     790:	3020                	fld	fs0,96(s0)
     792:	0055                	c.nop	21
     794:	5f5f 4e47 4355      	0x43554e475f5f
     79a:	4d5f 4e49 524f      	0x524f4e494d5f
     7a0:	5f5f 3220 5f00      	0x5f0032205f5f
     7a6:	465f 544c 3233      	0x3233544c465f
     7ac:	4e5f 524f 5f4d      	0x5f4d524f4e5f
     7b2:	414d                	li	sp,19
     7b4:	5f58                	lw	a4,60(a4)
     7b6:	205f 2e33 3034      	0x30342e33205f
     7bc:	3832                	fld	fa6,296(sp)
     7be:	3332                	fld	ft6,296(sp)
     7c0:	3634                	fld	fa3,104(a2)
     7c2:	3336                	fld	ft6,360(sp)
     7c4:	3538                	fld	fa4,104(a0)
     7c6:	3832                	fld	fa6,296(sp)
     7c8:	3538                	fld	fa4,104(a0)
     7ca:	3839                	jal	ffffffe8 <_fstack+0xefff7fe8>
     7cc:	3131                	jal	3d8 <_erodata+0x298>
     7ce:	31343037          	lui	zero,0x31343
     7d2:	3338                	fld	fa4,96(a4)
     7d4:	3834                	fld	fa3,112(s0)
     7d6:	3534                	fld	fa3,104(a0)
     7d8:	3631                	jal	2e4 <_erodata+0x1a4>
     7da:	3239                	jal	e8 <data_loop+0x10>
     7dc:	6535                	lui	a0,0xd
     7de:	4638332b          	0x4638332b
     7e2:	5f003233          	0x5f003233
     7e6:	535f 5359 4554      	0x45545359535f
     7ec:	5f4d                	li	t5,-13
     7ee:	2048                	fld	fa0,128(s0)
     7f0:	5f00                	lw	s0,56(a4)
     7f2:	725f 7465 7275      	0x72757465725f
     7f8:	736e                	flw	ft6,248(sp)
     7fa:	6e5f 6e6f 756e      	0x756e6e6f6e5f
     800:	6c6c                	flw	fa1,92(s0)
     802:	5f20                	lw	s0,120(a4)
     804:	615f 7474 6972      	0x69727474615f
     80a:	7562                	flw	fa0,56(sp)
     80c:	6574                	flw	fa3,76(a0)
     80e:	5f5f 2828 5f5f      	0x5f5f28285f5f
     814:	6572                	flw	fa0,28(sp)
     816:	7574                	flw	fa3,108(a0)
     818:	6e72                	flw	ft8,28(sp)
     81a:	6f6e5f73          	csrrwi	t5,0x6f6,28
     81e:	6e6e                	flw	ft8,216(sp)
     820:	6c75                	lui	s8,0x1d
     822:	5f6c                	lw	a1,124(a4)
     824:	295f 0029 4953      	0x49530029295f
     82a:	54415f47          	0x54415f47
     82e:	43494d4f          	fnmadd.d	fs10,fs2,fs4,fs0,rmm
     832:	4d5f 5841 2820      	0x282058414d5f
     838:	5f5f 5453 4944      	0x494454535f5f
     83e:	544e                	lw	s0,240(sp)
     840:	455f 5058 4928      	0x49285058455f
     846:	544e                	lw	s0,240(sp)
     848:	4d5f 5841 2929      	0x292958414d5f
     84e:	4300                	lw	s0,0(a4)
     850:	495f5253          	0x495f5253
     854:	5152                	lw	sp,52(sp)
     856:	4d5f 5341 204b      	0x204b53414d5f
     85c:	7830                	flw	fa2,112(s0)
     85e:	4342                	lw	t1,16(sp)
     860:	0030                	addi	a2,sp,8
     862:	5f5f 4c46 3654      	0x36544c465f5f
     868:	5f34                	lw	a3,120(a4)
     86a:	494d                	li	s2,19
     86c:	5f4e                	lw	t5,240(sp)
     86e:	205f 2e32 3232      	0x32322e32205f
     874:	3035                	jal	a0 <trap_entry+0x80>
     876:	35383337          	lui	t1,0x35383
     87a:	3538                	fld	fa4,104(a0)
     87c:	3730                	fld	fa2,104(a4)
     87e:	3032                	fld	ft0,296(sp)
     880:	3331                	jal	58c <_erodata+0x44c>
     882:	3338                	fld	fa4,96(a4)
     884:	3930                	fld	fa2,112(a0)
     886:	3230                	fld	fa2,96(a2)
     888:	31373233          	0x31373233
     88c:	32333337          	lui	t1,0x32333
     890:	3034                	fld	fa3,96(s0)
     892:	3034                	fld	fa3,96(s0)
     894:	6536                	flw	fa0,76(sp)
     896:	332d                	jal	5c0 <_erodata+0x480>
     898:	3830                	fld	fa2,112(s0)
     89a:	3646                	fld	fa2,112(sp)
     89c:	0034                	addi	a3,sp,8
     89e:	5f5f 4955 544e      	0x544e49555f5f
     8a4:	3631                	jal	3b0 <_erodata+0x270>
     8a6:	435f 6328 2029      	0x20296328435f
     8ac:	505f0063          	beq	t5,t0,dac <_erodata+0xc6c>
     8b0:	5849534f          	fnmadd.s	ft6,fs2,ft4,fa1,unknown
     8b4:	535f 554f 4352      	0x4352554f535f
     8ba:	0045                	c.nop	17
     8bc:	5f5f 4953 455a      	0x455a49535f5f
     8c2:	535f464f          	fnmadd.d	fa2,ft10,fs5,fa0,rmm
     8c6:	5a49                	li	s4,-14
     8c8:	5f45                	li	t5,-15
     8ca:	5f54                	lw	a3,60(a4)
     8cc:	205f 0034 5f5f      	0x5f5f0034205f
     8d2:	52414843          	fmadd.d	fa6,ft2,ft4,fa0,rmm
     8d6:	3631                	jal	3e2 <_erodata+0x2a2>
     8d8:	545f 5059 5f45      	0x5f455059545f
     8de:	205f 6873 726f      	0x726f6873205f
     8e4:	2074                	fld	fa3,192(s0)
     8e6:	6e75                	lui	t3,0x1d
     8e8:	6e676973          	csrrsi	s2,0x6e6,14
     8ec:	6465                	lui	s0,0x19
     8ee:	6920                	flw	fs0,80(a0)
     8f0:	746e                	flw	fs0,248(sp)
     8f2:	5f00                	lw	s0,56(a4)
     8f4:	645f 7065 6572      	0x65727065645f
     8fa:	65746163          	bltu	s0,s7,f3c <_erodata+0xdfc>
     8fe:	2064                	fld	fs1,192(s0)
     900:	5f5f 7461 7274      	0x727474615f5f
     906:	6269                	lui	tp,0x1a
     908:	7475                	lui	s0,0xffffd
     90a:	5f65                	li	t5,-7
     90c:	285f 5f28 645f      	0x645f5f28285f
     912:	7065                	c.lui	zero,0xffff9
     914:	6572                	flw	fa0,28(sp)
     916:	65746163          	bltu	s0,s7,f58 <_erodata+0xe18>
     91a:	5f64                	lw	s1,124(a4)
     91c:	295f 0029 5343      	0x53430029295f
     922:	5f52                	lw	t5,52(sp)
     924:	4155                	li	sp,21
     926:	5452                	lw	s0,52(sp)
     928:	455f 5f56 4550      	0x45505f56455f
     92e:	444e                	lw	s0,208(sp)
     930:	4e49                	li	t3,18
     932:	58525f47          	fmsub.s	ft10,ft4,ft5,fa1,unknown
     936:	4f5f 4646 4553      	0x455346464f5f
     93c:	2054                	fld	fa3,128(s0)
     93e:	0031                	c.nop	12
     940:	464e4f43          	fmadd.q	ft10,ft8,ft4,fs0,rmm
     944:	4749                	li	a4,18
     946:	425f 5355 415f      	0x415f5355425f
     94c:	4444                	lw	s1,12(s0)
     94e:	4552                	lw	a0,20(sp)
     950:	575f5353          	0x575f5353
     954:	4449                	li	s0,18
     956:	4854                	lw	a3,20(s0)
     958:	3320                	fld	fs0,96(a4)
     95a:	0032                	c.slli	zero,0xc
     95c:	5f5f 4e49 5f54      	0x5f544e495f5f
     962:	4146                	lw	sp,80(sp)
     964:	5f385453          	0x5f385453
     968:	414d                	li	sp,19
     96a:	5f58                	lw	a4,60(a4)
     96c:	205f 7830 6637      	0x66377830205f
     972:	6666                	flw	fa2,88(sp)
     974:	6666                	flw	fa2,88(sp)
     976:	6666                	flw	fa2,88(sp)
     978:	5f00                	lw	s0,56(a4)
     97a:	4f5f 4452 5245      	0x524544524f5f
     980:	425f 4749 455f      	0x455f4749425f
     986:	444e                	lw	s0,208(sp)
     988:	4149                	li	sp,18
     98a:	5f4e                	lw	t5,240(sp)
     98c:	205f 3334 3132      	0x31323334205f
     992:	5500                	lw	s0,40(a0)
     994:	5241                	li	tp,-16
     996:	5f54                	lw	a3,60(a4)
     998:	4e49                	li	t3,18
     99a:	4554                	lw	a3,12(a0)
     99c:	5252                	lw	tp,52(sp)
     99e:	5055                	c.li	zero,-11
     9a0:	2054                	fld	fa3,128(s0)
     9a2:	0030                	addi	a2,sp,8
     9a4:	726f6873          	csrrsi	a6,0x726,30
     9a8:	2074                	fld	fa3,192(s0)
     9aa:	5f00312b          	0x5f00312b
     9ae:	445f 4c42 4d5f      	0x4d5f4c42445f
     9b4:	4e41                	li	t3,16
     9b6:	5f54                	lw	a3,60(a4)
     9b8:	4944                	lw	s1,20(a0)
     9ba:	205f5f47          	fmsub.s	ft10,ft10,ft5,ft4,unknown
     9be:	3335                	jal	6ea <_erodata+0x5aa>
     9c0:	5f00                	lw	s0,56(a4)
     9c2:	555f 4e49 5f54      	0x5f544e49555f
     9c8:	454c                	lw	a1,12(a0)
     9ca:	5341                	li	t1,-16
     9cc:	3654                	fld	fa3,168(a2)
     9ce:	5f34                	lw	a3,120(a4)
     9d0:	5954                	lw	a3,52(a0)
     9d2:	4550                	lw	a2,12(a0)
     9d4:	5f5f 6c20 6e6f      	0x6e6f6c205f5f
     9da:	6f6c2067          	0x6f6c2067
     9de:	676e                	flw	fa4,216(sp)
     9e0:	7520                	flw	fs0,104(a0)
     9e2:	736e                	flw	ft6,248(sp)
     9e4:	6769                	lui	a4,0x1a
     9e6:	656e                	flw	fa0,216(sp)
     9e8:	2064                	fld	fs1,192(s0)
     9ea:	6e69                	lui	t3,0x1a
     9ec:	0074                	addi	a3,sp,12
     9ee:	5f5f 4148 4556      	0x455641485f5f
     9f4:	425f 4955 544c      	0x544c4955425f
     9fa:	4e49                	li	t3,18
     9fc:	415f 4c4c 434f      	0x434f4c4c415f
     a02:	2041                	jal	a82 <_erodata+0x942>
     a04:	0031                	c.nop	12
     a06:	5f5f 424d 455f      	0x455f424d5f5f
     a0c:	5458                	lw	a4,44(s0)
     a0e:	4e45                	li	t3,17
     a10:	4544                	lw	s1,12(a0)
     a12:	5f44                	lw	s1,60(a4)
     a14:	52414843          	fmadd.d	fa6,ft2,ft4,fa0,rmm
     a18:	53544553          	0x53544553
     a1c:	495f 4f53 5f00      	0x5f004f53495f
     a22:	495f 544e 4d5f      	0x4d5f544e495f
     a28:	5841                	li	a6,-16
     a2a:	5f5f 3020 3778      	0x377830205f5f
     a30:	6666                	flw	fa2,88(sp)
     a32:	6666                	flw	fa2,88(sp)
     a34:	6666                	flw	fa2,88(sp)
     a36:	0066                	c.slli	zero,0x19
     a38:	5f5f 5441 4d4f      	0x4d4f54415f5f
     a3e:	4349                	li	t1,18
     a40:	525f 4c45 4145      	0x41454c45525f
     a46:	33204553          	0x33204553
     a4a:	5f00                	lw	s0,56(a4)
     a4c:	505f 5254 4944      	0x49445254505f
     a52:	4646                	lw	a2,80(sp)
     a54:	545f 5059 5f45      	0x5f455059545f
     a5a:	205f 6e69 0074      	0x746e69205f
     a60:	5f5f 4843 5241      	0x524148435f5f
     a66:	555f 534e 4749      	0x4749534e555f
     a6c:	454e                	lw	a0,208(sp)
     a6e:	5f44                	lw	s1,60(a4)
     a70:	205f 0031 5f5f      	0x5f5f0031205f
     a76:	4148                	lw	a0,4(a0)
     a78:	4556                	lw	a0,84(sp)
     a7a:	425f 4955 544c      	0x544c4955425f
     a80:	4e49                	li	t3,18
     a82:	435f 5a54 3120      	0x31205a54435f
     a88:	5f00                	lw	s0,56(a4)
     a8a:	495f 544e 3631      	0x3631544e495f
     a90:	545f 5059 5f45      	0x5f455059545f
     a96:	205f 6873 726f      	0x726f6873205f
     a9c:	2074                	fld	fa3,192(s0)
     a9e:	6e69                	lui	t3,0x1a
     aa0:	0074                	addi	a3,sp,12
     aa2:	535f 5359 435f      	0x435f5359535f
     aa8:	4544                	lw	s1,12(a0)
     aaa:	5346                	lw	t1,112(sp)
     aac:	485f 205f 4300      	0x4300205f485f
     ab2:	49464e4f          	fnmadd.s	ft8,fa2,fs4,fs1,rmm
     ab6:	50435f47          	fmsub.s	ft10,ft6,ft4,fa0,unknown
     aba:	5f55                	li	t5,-11
     abc:	4146                	lw	sp,80(sp)
     abe:	494d                	li	s2,19
     ac0:	594c                	lw	a1,52(a0)
     ac2:	2220                	fld	fs0,64(a2)
     ac4:	6972                	flw	fs2,28(sp)
     ac6:	22766373          	csrrsi	t1,0x227,12
     aca:	5f00                	lw	s0,56(a4)
     acc:	5f535953          	0x5f535953
     ad0:	495f 544e 5553      	0x5553544e495f
     ad6:	5f50                	lw	a2,60(a4)
     ad8:	2048                	fld	fa0,128(s0)
     ada:	5f00                	lw	s0,56(a4)
     adc:	4f5f 5450 4d49      	0x4d4954504f5f
     ae2:	5a49                	li	s4,-14
     ae4:	5f45                	li	t5,-15
     ae6:	205f 0031 6e75      	0x6e750031205f
     aec:	6e676973          	csrrsi	s2,0x6e6,14
     af0:	6465                	lui	s0,0x19
     af2:	5f00                	lw	s0,56(a4)
     af4:	465f 544c 3436      	0x3436544c465f
     afa:	5f58                	lw	a4,60(a4)
     afc:	414d                	li	sp,19
     afe:	5f58                	lw	a4,60(a4)
     b00:	5845                	li	a6,-15
     b02:	5f50                	lw	a2,60(a4)
     b04:	205f 3631 3833      	0x38333631205f
     b0a:	0034                	addi	a3,sp,8
     b0c:	5f5f 5441 4d4f      	0x4d4f54415f5f
     b12:	4349                	li	t1,18
     b14:	535f 5145 435f      	0x435f5145535f
     b1a:	35205453          	0x35205453
     b1e:	5f00                	lw	s0,56(a4)
     b20:	5f727363          	bgeu	tp,s7,1106 <_erodata+0xfc6>
     b24:	625f7277          	0x625f7277
     b28:	6675                	lui	a2,0x1d
     b2a:	6128                	flw	fa0,64(a0)
     b2c:	622c                	flw	fa1,64(a2)
     b2e:	6675                	lui	a2,0x1d
     b30:	632c                	flw	fa1,64(a4)
     b32:	746e                	flw	fs0,248(sp)
     b34:	2029                	jal	b3e <_erodata+0x9fe>
     b36:	6e69207b          	0x6e69207b
     b3a:	2074                	fld	fa3,192(s0)
     b3c:	2c69                	jal	dd6 <_erodata+0xc96>
     b3e:	6a20                	flw	fs0,80(a2)
     b40:	202c                	fld	fa1,64(s0)
     b42:	7366666f          	jal	a2,67278 <_erodata+0x67138>
     b46:	7465                	lui	s0,0xffff9
     b48:	202c                	fld	fa1,64(s0)
     b4a:	736e                	flw	ft6,248(sp)
     b4c:	6275                	lui	tp,0x1d
     b4e:	6572                	flw	fa0,28(sp)
     b50:	202c7367          	0x202c7367
     b54:	736e                	flw	ft6,248(sp)
     b56:	6275                	lui	tp,0x1d
     b58:	6c65                	lui	s8,0x19
     b5a:	6d65                	lui	s10,0x19
     b5c:	75203b73          	csrrc	s6,0x752,zero
     b60:	6e69                	lui	t3,0x1a
     b62:	3674                	fld	fa3,232(a2)
     b64:	5f34                	lw	a3,120(a4)
     b66:	2074                	fld	fa3,192(s0)
     b68:	3b76                	fld	fs6,376(sp)
     b6a:	6920                	flw	fs0,80(a0)
     b6c:	2066                	fld	ft0,88(sp)
     b6e:	7328                	flw	fa0,96(a4)
     b70:	7a69                	lui	s4,0xffffa
     b72:	6f65                	lui	t5,0x19
     b74:	2866                	fld	fa6,88(sp)
     b76:	7562                	flw	fa0,56(sp)
     b78:	5b66                	lw	s6,120(sp)
     b7a:	5d30                	lw	a2,120(a0)
     b7c:	2029                	jal	b86 <_erodata+0xa46>
     b7e:	3d3e                	fld	fs10,488(sp)
     b80:	4320                	lw	s0,64(a4)
     b82:	445f5253          	0x445f5253
     b86:	59425f57          	0x59425f57
     b8a:	4554                	lw	a3,12(a0)
     b8c:	7b202953          	0x7b202953
     b90:	6620                	flw	fs0,72(a2)
     b92:	2820726f          	jal	tp,7e14 <_erodata+0x7cd4>
     b96:	2069                	jal	c20 <_erodata+0xae0>
     b98:	203d                	jal	bc6 <_erodata+0xa86>
     b9a:	3b30                	fld	fa2,112(a4)
     b9c:	6920                	flw	fs0,80(a0)
     b9e:	3c20                	fld	fs0,120(s0)
     ba0:	6320                	flw	fs0,64(a4)
     ba2:	746e                	flw	fs0,248(sp)
     ba4:	2b69203b          	0x2b69203b
     ba8:	7b20292b          	0x7b20292b
     bac:	5f20                	lw	s0,120(a4)
     bae:	5f727363          	bgeu	tp,s7,1194 <_erodata+0x1054>
     bb2:	61287277          	0x61287277
     bb6:	202c                	fld	fa1,64(s0)
     bb8:	7562                	flw	fa0,56(sp)
     bba:	5b66                	lw	s6,120(sp)
     bbc:	5d69                	li	s10,-6
     bbe:	202c                	fld	fa1,64(s0)
     bc0:	657a6973          	csrrsi	s2,0x657,20
     bc4:	6228666f          	jal	a2,871e6 <_erodata+0x870a6>
     bc8:	6675                	lui	a2,0x1d
     bca:	295d305b          	0x295d305b
     bce:	3b29                	jal	8e8 <_erodata+0x7a8>
     bd0:	6120                	flw	fs0,64(a0)
     bd2:	2b20                	fld	fs0,80(a4)
     bd4:	203d                	jal	c02 <_erodata+0xac2>
     bd6:	5f525343          	fmadd.q	ft6,ft4,fs5,fa1,unknown
     bda:	5346464f          	fnmadd.d	fa2,fa2,fs4,fa0,rmm
     bde:	5445                	li	s0,-15
     be0:	425f 5459 5345      	0x53455459425f
     be6:	2a20                	fld	fs0,80(a2)
     be8:	6e20                	flw	fs0,88(a2)
     bea:	6d75                	lui	s10,0x1d
     bec:	735f 6275 6572      	0x65726275735f
     bf2:	73287367          	0x73287367
     bf6:	7a69                	lui	s4,0xffffa
     bf8:	6f65                	lui	t5,0x19
     bfa:	2866                	fld	fa6,88(sp)
     bfc:	7562                	flw	fa0,56(sp)
     bfe:	5b66                	lw	s6,120(sp)
     c00:	5d30                	lw	a2,120(a0)
     c02:	2929                	jal	101c <_erodata+0xedc>
     c04:	207d203b          	0x207d203b
     c08:	207d                	jal	cb6 <_erodata+0xb76>
     c0a:	6c65                	lui	s8,0x19
     c0c:	7b206573          	csrrsi	a0,dscratch0,0
     c10:	6e20                	flw	fs0,88(a2)
     c12:	72627573          	csrrci	a0,0x726,4
     c16:	6765                	lui	a4,0x19
     c18:	203d2073          	csrs	0x203,s10
     c1c:	756e                	flw	fa0,248(sp)
     c1e:	5f6d                	li	t5,-5
     c20:	72627573          	csrrci	a0,0x726,4
     c24:	6765                	lui	a4,0x19
     c26:	69732873          	csrrs	a6,0x697,t1
     c2a:	657a                	flw	fa0,156(sp)
     c2c:	6228666f          	jal	a2,8724e <_erodata+0x8710e>
     c30:	6675                	lui	a2,0x1d
     c32:	295d305b          	0x295d305b
     c36:	2a20                	fld	fs0,80(a2)
     c38:	6320                	flw	fs0,64(a4)
     c3a:	746e                	flw	fs0,248(sp)
     c3c:	3b29                	jal	956 <_erodata+0x816>
     c3e:	6e20                	flw	fs0,88(a2)
     c40:	65627573          	csrrci	a0,0x656,4
     c44:	656c                	flw	fa1,76(a0)
     c46:	736d                	lui	t1,0xffffb
     c48:	3d20                	fld	fs0,120(a0)
     c4a:	4320                	lw	s0,64(a4)
     c4c:	445f5253          	0x445f5253
     c50:	59425f57          	0x59425f57
     c54:	4554                	lw	a3,12(a0)
     c56:	202f2053          	fsgnjx.s	ft0,ft10,ft2
     c5a:	657a6973          	csrrsi	s2,0x657,20
     c5e:	6228666f          	jal	a2,87280 <_erodata+0x87140>
     c62:	6675                	lui	a2,0x1d
     c64:	295d305b          	0x295d305b
     c68:	666f203b          	0x666f203b
     c6c:	7366                	flw	ft6,120(sp)
     c6e:	7465                	lui	s0,0xffff9
     c70:	3d20                	fld	fs0,120(a0)
     c72:	6e20                	flw	fs0,88(a2)
     c74:	72627573          	csrrci	a0,0x726,4
     c78:	6765                	lui	a4,0x19
     c7a:	736e2a73          	csrrs	s4,0x736,t3
     c7e:	6275                	lui	tp,0x1d
     c80:	6c65                	lui	s8,0x19
     c82:	6d65                	lui	s10,0x19
     c84:	202d2073          	csrs	0x202,s10
     c88:	3b746e63          	bltu	s0,s7,1044 <_erodata+0xf04>
     c8c:	6620                	flw	fs0,72(a2)
     c8e:	2820726f          	jal	tp,7f10 <_erodata+0x7dd0>
     c92:	2069                	jal	d1c <_erodata+0xbdc>
     c94:	203d                	jal	cc2 <_erodata+0xb82>
     c96:	3b30                	fld	fa2,112(a4)
     c98:	6920                	flw	fs0,80(a0)
     c9a:	3c20                	fld	fs0,120(s0)
     c9c:	6e20                	flw	fs0,88(a2)
     c9e:	72627573          	csrrci	a0,0x726,4
     ca2:	6765                	lui	a4,0x19
     ca4:	69203b73          	csrrc	s6,0x692,zero
     ca8:	20292b2b          	0x20292b2b
     cac:	2076207b          	0x2076207b
     cb0:	203d                	jal	cde <_erodata+0xb9e>
     cb2:	3b30                	fld	fa2,112(a4)
     cb4:	6620                	flw	fs0,72(a2)
     cb6:	2820726f          	jal	tp,7f38 <_erodata+0x7df8>
     cba:	3d6a                	fld	fs10,184(sp)
     cbc:	3020                	fld	fs0,96(s0)
     cbe:	206a203b          	0x206a203b
     cc2:	203c                	fld	fa5,64(s0)
     cc4:	736e                	flw	ft6,248(sp)
     cc6:	6275                	lui	tp,0x1d
     cc8:	6c65                	lui	s8,0x19
     cca:	6d65                	lui	s10,0x19
     ccc:	6a203b73          	csrrc	s6,0x6a2,zero
     cd0:	20292b2b          	0x20292b2b
     cd4:	6669207b          	0x6669207b
     cd8:	2820                	fld	fs0,80(s0)
     cda:	6928                	flw	fa0,80(a0)
     cdc:	2a20                	fld	fs0,80(a2)
     cde:	6e20                	flw	fs0,88(a2)
     ce0:	65627573          	csrrci	a0,0x656,4
     ce4:	656c                	flw	fa1,76(a0)
     ce6:	736d                	lui	t1,0xffffb
     ce8:	2b20                	fld	fs0,80(a4)
     cea:	6a20                	flw	fs0,80(a2)
     cec:	2d20                	fld	fs0,88(a0)
     cee:	6f20                	flw	fs0,88(a4)
     cf0:	6666                	flw	fa2,88(sp)
     cf2:	29746573          	csrrsi	a0,0x297,8
     cf6:	3e20                	fld	fs0,120(a2)
     cf8:	203d                	jal	d26 <_erodata+0xbe6>
     cfa:	2930                	fld	fa2,80(a0)
     cfc:	7b20                	flw	fs0,112(a4)
     cfe:	7620                	flw	fs0,104(a2)
     d00:	3c20                	fld	fs0,120(s0)
     d02:	3d3c                	fld	fa5,120(a0)
     d04:	7320                	flw	fs0,96(a4)
     d06:	7a69                	lui	s4,0xffffa
     d08:	6f65                	lui	t5,0x19
     d0a:	2866                	fld	fa6,88(sp)
     d0c:	7562                	flw	fa0,56(sp)
     d0e:	5b66                	lw	s6,120(sp)
     d10:	5d30                	lw	a2,120(a0)
     d12:	2029                	jal	d1c <_erodata+0xbdc>
     d14:	202a                	fld	ft0,136(sp)
     d16:	3b38                	fld	fa4,112(a4)
     d18:	7620                	flw	fs0,104(a2)
     d1a:	7c20                	flw	fs0,120(s0)
     d1c:	203d                	jal	d4a <_erodata+0xc0a>
     d1e:	7562                	flw	fa0,56(sp)
     d20:	5b66                	lw	s6,120(sp)
     d22:	2069                	jal	dac <_erodata+0xc6c>
     d24:	202a                	fld	ft0,136(sp)
     d26:	736e                	flw	ft6,248(sp)
     d28:	6275                	lui	tp,0x1d
     d2a:	6c65                	lui	s8,0x19
     d2c:	6d65                	lui	s10,0x19
     d2e:	202b2073          	csrs	0x202,s6
     d32:	206a                	fld	ft0,152(sp)
     d34:	202d                	jal	d5e <_erodata+0xc1e>
     d36:	7366666f          	jal	a2,6746c <_erodata+0x6732c>
     d3a:	7465                	lui	s0,0xffff9
     d3c:	3b5d                	jal	af2 <_erodata+0x9b2>
     d3e:	7d20                	flw	fs0,120(a0)
     d40:	7d20                	flw	fs0,120(a0)
     d42:	6320                	flw	fs0,64(a4)
     d44:	775f7273          	csrrci	tp,0x775,30
     d48:	6972                	flw	fs2,28(sp)
     d4a:	6574                	flw	fa3,76(a0)
     d4c:	735f 6d69 6c70      	0x6c706d69735f
     d52:	2865                	jal	e0a <_erodata+0xcca>
     d54:	2c76                	fld	fs8,344(sp)
     d56:	6120                	flw	fs0,64(a0)
     d58:	3b29                	jal	a72 <_erodata+0x932>
     d5a:	6120                	flw	fs0,64(a0)
     d5c:	2b20                	fld	fs0,80(a4)
     d5e:	203d                	jal	d8c <_erodata+0xc4c>
     d60:	5f525343          	fmadd.q	ft6,ft4,fs5,fa1,unknown
     d64:	5346464f          	fnmadd.d	fa2,fa2,fs4,fa0,rmm
     d68:	5445                	li	s0,-15
     d6a:	425f 5459 5345      	0x53455459425f
     d70:	207d203b          	0x207d203b
     d74:	207d                	jal	e22 <_erodata+0xce2>
     d76:	007d                	c.nop	31
     d78:	4950                	lw	a2,20(a0)
     d7a:	494c4f43          	fmadd.s	ft10,fs8,fs4,fs1,rmm
     d7e:	4342                	lw	t1,16(sp)
     d80:	565f 5245 4953      	0x49535245565f
     d86:	22204e4f          	fnmadd.d	ft8,ft0,ft2,ft4,rmm
     d8a:	6166                	flw	ft2,88(sp)
     d8c:	302d656b          	0x302d656b
     d90:	312e                	fld	ft2,232(sp)
     d92:	0022                	c.slli	zero,0x8
     d94:	5f5f 4953 455a      	0x455a49535f5f
     d9a:	535f464f          	fnmadd.d	fa2,ft10,fs5,fa0,rmm
     d9e:	4f48                	lw	a0,28(a4)
     da0:	5452                	lw	s0,52(sp)
     da2:	5f5f 3220 5f00      	0x5f0032205f5f
     da8:	495f 544e 4c5f      	0x4c5f544e495f
     dae:	4145                	li	sp,17
     db0:	5f385453          	0x5f385453
     db4:	414d                	li	sp,19
     db6:	5f58                	lw	a4,60(a4)
     db8:	205f 7830 6637      	0x66377830205f
     dbe:	5f00                	lw	s0,56(a4)
     dc0:	465f 544c 3233      	0x3233544c465f
     dc6:	4d5f 4e49 5f5f      	0x5f5f4e494d5f
     dcc:	3120                	fld	fs0,96(a0)
     dce:	312e                	fld	ft2,232(sp)
     dd0:	39343537          	lui	a0,0x39343
     dd4:	3334                	fld	fa3,96(a4)
     dd6:	3035                	jal	602 <_erodata+0x4c2>
     dd8:	3238                	fld	fa4,96(a2)
     dda:	3232                	fld	ft4,296(sp)
     ddc:	3738                	fld	fa4,104(a4)
     dde:	3035                	jal	60a <_erodata+0x4ca>
     de0:	38363937          	lui	s2,0x38363
     de4:	35363337          	lui	t1,0x35363
     de8:	32323733          	0x32323733
     dec:	3232                	fld	ft4,296(sp)
     dee:	3534                	fld	fa3,104(a0)
     df0:	3836                	fld	fa6,360(sp)
     df2:	2d65                	jal	14aa <_erodata+0x136a>
     df4:	33463833          	0x33463833
     df8:	0032                	c.slli	zero,0xc
     dfa:	5f5f 4c46 3654      	0x36544c465f5f
     e00:	5f34                	lw	a3,120(a4)
     e02:	414d                	li	sp,19
     e04:	544e                	lw	s0,240(sp)
     e06:	445f 4749 5f5f      	0x5f5f4749445f
     e0c:	3520                	fld	fs0,104(a0)
     e0e:	5f5f0033          	0x5f5f0033
     e12:	454c                	lw	a1,12(a0)
     e14:	5341                	li	t1,-16
     e16:	3854                	fld	fa3,176(s0)
     e18:	2220                	fld	fs0,64(a2)
     e1a:	6868                	flw	fa0,84(s0)
     e1c:	0022                	c.slli	zero,0x8
     e1e:	5f5f 4955 544e      	0x544e49555f5f
     e24:	414d                	li	sp,19
     e26:	5f58                	lw	a4,60(a4)
     e28:	29632843          	fmadd.s	fa6,ft6,fs6,ft5,rdn
     e2c:	6320                	flw	fs0,64(a4)
     e2e:	2320                	fld	fs0,64(a4)
     e30:	4c552023          	sw	t0,1216(a0) # 393434c0 <_fstack+0x2933b4c0>
     e34:	004c                	addi	a1,sp,4
     e36:	5f5f 7470 5f72      	0x5f7274705f5f
     e3c:	2074                	fld	fa3,192(s0)
     e3e:	6f76                	flw	ft10,92(sp)
     e40:	6469                	lui	s0,0x1a
     e42:	2a20                	fld	fs0,80(a2)
     e44:	4900                	lw	s0,16(a0)
     e46:	544e                	lw	s0,240(sp)
     e48:	435f3233          	0x435f3233
     e4c:	7828                	flw	fa0,112(s0)
     e4e:	2029                	jal	e58 <_erodata+0xd18>
     e50:	5f5f 4e49 3354      	0x33544e495f5f
     e56:	5f32                	lw	t5,44(sp)
     e58:	29782843          	fmadd.s	fa6,fa6,fs7,ft5,rdn
     e5c:	5f00                	lw	s0,56(a4)
     e5e:	575f 4843 5241      	0x52414843575f
     e64:	4d5f 4e49 5f5f      	0x5f5f4e494d5f
     e6a:	2820                	fld	fs0,80(s0)
     e6c:	5f2d                	li	t5,-21
     e6e:	575f 4843 5241      	0x52414843575f
     e74:	4d5f 5841 5f5f      	0x5f5f58414d5f
     e7a:	2d20                	fld	fs0,88(a0)
     e7c:	3120                	fld	fs0,96(a0)
     e7e:	0029                	c.nop	10
     e80:	77727363          	bgeu	tp,s7,15e6 <_erodata+0x14a6>
     e84:	7228                	flw	fa0,96(a2)
     e86:	6765                	lui	a4,0x19
     e88:	762c                	flw	fa1,104(a2)
     e8a:	6c61                	lui	s8,0x18
     e8c:	2029                	jal	e96 <_erodata+0xd56>
     e8e:	7b28                	flw	fa0,112(a4)
     e90:	6920                	flw	fs0,80(a0)
     e92:	2066                	fld	ft0,88(sp)
     e94:	5f28                	lw	a0,120(a4)
     e96:	625f 6975 746c      	0x746c6975625f
     e9c:	6e69                	lui	t3,0x1a
     e9e:	635f 6e6f 7473      	0x74736e6f635f
     ea4:	6e61                	lui	t3,0x18
     ea6:	5f74                	lw	a3,124(a4)
     ea8:	2870                	fld	fa2,208(s0)
     eaa:	6176                	flw	ft2,92(sp)
     eac:	296c                	fld	fa1,208(a0)
     eae:	2620                	fld	fs0,72(a2)
     eb0:	2026                	fld	ft0,72(sp)
     eb2:	7528                	flw	fa0,104(a0)
     eb4:	736e                	flw	ft6,248(sp)
     eb6:	6769                	lui	a4,0x1a
     eb8:	656e                	flw	fa0,216(sp)
     eba:	2064                	fld	fs1,192(s0)
     ebc:	6f6c                	flw	fa1,92(a4)
     ebe:	676e                	flw	fa4,216(sp)
     ec0:	2829                	jal	eda <_erodata+0xd9a>
     ec2:	6176                	flw	ft2,92(sp)
     ec4:	296c                	fld	fa1,208(a0)
     ec6:	3c20                	fld	fs0,120(s0)
     ec8:	3320                	fld	fs0,96(a4)
     eca:	2932                	fld	fs2,264(sp)
     ecc:	6120                	flw	fs0,64(a0)
     ece:	76206d73          	csrrsi	s10,0x762,0
     ed2:	74616c6f          	jal	s8,17618 <_erodata+0x174d8>
     ed6:	6c69                	lui	s8,0x1a
     ed8:	2065                	jal	f80 <_erodata+0xe40>
     eda:	2228                	fld	fa0,64(a2)
     edc:	77727363          	bgeu	tp,s7,1642 <_erodata+0x1502>
     ee0:	2220                	fld	fs0,64(a2)
     ee2:	2320                	fld	fs0,64(a4)
     ee4:	6572                	flw	fa0,28(sp)
     ee6:	2c222067          	0x2c222067
     eea:	2520                	fld	fs0,72(a0)
     eec:	2230                	fld	fa2,64(a2)
     eee:	3a20                	fld	fs0,112(a2)
     ef0:	203a                	fld	ft0,392(sp)
     ef2:	6922                	flw	fs2,8(sp)
     ef4:	2822                	fld	fa6,8(sp)
     ef6:	6176                	flw	ft2,92(sp)
     ef8:	296c                	fld	fa1,208(a0)
     efa:	3b29                	jal	c14 <_erodata+0xad4>
     efc:	6520                	flw	fs0,72(a0)
     efe:	736c                	flw	fa1,100(a4)
     f00:	2065                	jal	fa8 <_erodata+0xe68>
     f02:	7361                	lui	t1,0xffff8
     f04:	206d                	jal	fae <_erodata+0xe6e>
     f06:	6f76                	flw	ft10,92(sp)
     f08:	616c                	flw	fa1,68(a0)
     f0a:	6974                	flw	fa3,84(a0)
     f0c:	656c                	flw	fa1,76(a0)
     f0e:	2820                	fld	fs0,80(s0)
     f10:	6322                	flw	ft6,8(sp)
     f12:	20777273          	csrrci	tp,0x207,14
     f16:	2022                	fld	ft0,8(sp)
     f18:	67657223          	0x67657223
     f1c:	2220                	fld	fs0,64(a2)
     f1e:	202c                	fld	fa1,64(s0)
     f20:	3025                	jal	748 <_erodata+0x608>
     f22:	2022                	fld	ft0,8(sp)
     f24:	3a3a                	fld	fs4,424(sp)
     f26:	2220                	fld	fs0,64(a2)
     f28:	2272                	fld	ft4,280(sp)
     f2a:	7628                	flw	fa0,104(a2)
     f2c:	6c61                	lui	s8,0x18
     f2e:	2929                	jal	1348 <_erodata+0x1208>
     f30:	297d203b          	0x297d203b
     f34:	5f00                	lw	s0,56(a4)
     f36:	425f 5459 5f45      	0x5f455459425f
     f3c:	4544524f          	0x4544524f
     f40:	5f52                	lw	t5,52(sp)
     f42:	205f 5f5f 524f      	0x524f5f5f205f
     f48:	4544                	lw	s1,12(a0)
     f4a:	5f52                	lw	t5,52(sp)
     f4c:	494c                	lw	a1,20(a0)
     f4e:	5454                	lw	a3,44(s0)
     f50:	454c                	lw	a1,12(a0)
     f52:	455f 444e 4149      	0x4149444e455f
     f58:	5f4e                	lw	t5,240(sp)
     f5a:	005f 5f5f 444c      	0x444c5f5f005f
     f60:	4c42                	lw	s8,16(sp)
     f62:	4d5f 4e49 5f5f      	0x5f5f4e494d5f
     f68:	3320                	fld	fs0,96(a4)
     f6a:	332e                	fld	ft6,232(sp)
     f6c:	3236                	fld	ft4,360(sp)
     f6e:	3031                	jal	77a <_erodata+0x63a>
     f70:	33343133          	0x33343133
     f74:	3131                	jal	b80 <_erodata+0xa40>
     f76:	3032                	fld	ft0,296(sp)
     f78:	3339                	jal	c86 <_erodata+0xb46>
     f7a:	3035                	jal	7a6 <_erodata+0x666>
     f7c:	3236                	fld	ft4,360(sp)
     f7e:	3236                	fld	ft4,360(sp)
     f80:	3736                	fld	fa4,360(sp)
     f82:	37313837          	lui	a6,0x37313
     f86:	37313233          	0x37313233
     f8a:	3235                	jal	8b6 <_erodata+0x776>
     f8c:	3036                	fld	ft0,360(sp)
     f8e:	2d65                	jal	1646 <_erodata+0x1506>
     f90:	3934                	fld	fa3,112(a0)
     f92:	004c3233          	sltu	tp,s8,tp
     f96:	5f5f 4c46 3354      	0x33544c465f5f
     f9c:	5f32                	lw	t5,44(sp)
     f9e:	494d                	li	s2,19
     fa0:	5f4e                	lw	t5,240(sp)
     fa2:	3031                	jal	7ae <_erodata+0x66e>
     fa4:	455f 5058 5f5f      	0x5f5f5058455f
     faa:	2820                	fld	fs0,80(s0)
     fac:	332d                	jal	cd6 <_erodata+0xb96>
     fae:	5f002937          	lui	s2,0x5f002
     fb2:	695f 746e 3032      	0x3032746e695f
     fb8:	5f00                	lw	s0,56(a4)
     fba:	6d5f 6e69 735f      	0x735f6e696d5f
     fc0:	7a69                	lui	s4,0xffffa
     fc2:	2865                	jal	107a <_erodata+0xf3a>
     fc4:	2978                	fld	fa4,208(a0)
     fc6:	7320                	flw	fs0,96(a4)
     fc8:	6174                	flw	fa3,68(a0)
     fca:	6974                	flw	fa3,84(a0)
     fcc:	78282063          	0x78282063
     fd0:	0029                	c.nop	10
     fd2:	464e4f43          	fmadd.q	ft10,ft8,ft4,fs0,rmm
     fd6:	4749                	li	a4,18
     fd8:	425f 5355 425f      	0x425f5355425f
     fde:	5255                	li	tp,-11
     fe0:	4e495453          	0x4e495453
     fe4:	00302047          	fmsub.s	ft0,ft0,ft3,ft0,rdn
     fe8:	72616863          	bltu	sp,t1,1718 <_erodata+0x15d8>
     fec:	2b20                	fld	fs0,80(a4)
     fee:	0030                	addi	a2,sp,8
     ff0:	555f 4e49 3154      	0x31544e49555f
     ff6:	5f36                	lw	t5,108(sp)
     ff8:	5f54                	lw	a3,60(a4)
     ffa:	4544                	lw	s1,12(a0)
     ffc:	52414c43          	fmadd.d	fs8,ft2,ft4,fa0,rmm
    1000:	4445                	li	s0,17
    1002:	0020                	addi	s0,sp,8
    1004:	5f5f 5453 4344      	0x434454535f5f
    100a:	555f 4654 335f      	0x335f4654555f
    1010:	5f32                	lw	t5,44(sp)
    1012:	205f 0031 5f5f      	0x5f5f0031205f
    1018:	4148                	lw	a0,4(a0)
    101a:	4556                	lw	a0,84(sp)
    101c:	425f 4955 544c      	0x544c4955425f
    1022:	4e49                	li	t3,18
    1024:	435f 5a54 204c      	0x204c5a54435f
    102a:	0031                	c.nop	12
    102c:	5f5f 424f 4f53      	0x4f53424f5f5f
    1032:	454c                	lw	a1,12(a0)
    1034:	4554                	lw	a3,12(a0)
    1036:	4d5f 5441 5f48      	0x5f4854414d5f
    103c:	4544                	lw	s1,12(a0)
    103e:	4146                	lw	sp,80(sp)
    1040:	4c55                	li	s8,21
    1042:	2054                	fld	fa3,128(s0)
    1044:	0031                	c.nop	12
    1046:	5f5f 4955 544e      	0x544e49555f5f
    104c:	4c5f 4145 5453      	0x545341454c5f
    1052:	5f38                	lw	a4,120(a4)
    1054:	5954                	lw	a3,52(a0)
    1056:	4550                	lw	a2,12(a0)
    1058:	5f5f 7520 736e      	0x736e75205f5f
    105e:	6769                	lui	a4,0x1a
    1060:	656e                	flw	fa0,216(sp)
    1062:	2064                	fld	fs1,192(s0)
    1064:	72616863          	bltu	sp,t1,1794 <_erodata+0x1654>
    1068:	4900                	lw	s0,16(a0)
    106a:	544e                	lw	s0,240(sp)
    106c:	5450                	lw	a2,44(s0)
    106e:	5f52                	lw	t5,52(sp)
    1070:	414d                	li	sp,19
    1072:	2058                	fld	fa4,128(s0)
    1074:	5f28                	lw	a0,120(a4)
    1076:	495f 544e 5450      	0x5450544e495f
    107c:	5f52                	lw	t5,52(sp)
    107e:	414d                	li	sp,19
    1080:	5f58                	lw	a4,60(a4)
    1082:	295f 5f00 535f      	0x535f5f00295f
    1088:	52414843          	fmadd.d	fa6,ft2,ft4,fa0,rmm
    108c:	4d5f 5841 5f5f      	0x5f5f58414d5f
    1092:	3020                	fld	fs0,96(s0)
    1094:	3778                	fld	fa4,232(a4)
    1096:	0066                	c.slli	zero,0x19
    1098:	5f5f 444c 4c42      	0x4c42444c5f5f
    109e:	445f 4e45 524f      	0x524f4e45445f
    10a4:	5f4d                	li	t5,-13
    10a6:	494d                	li	s2,19
    10a8:	5f4e                	lw	t5,240(sp)
    10aa:	205f 2e36 3734      	0x37342e36205f
    10b0:	3135                	jal	cdc <_erodata+0xb9c>
    10b2:	31313537          	lui	a0,0x31313
    10b6:	3439                	jal	ac4 <_erodata+0x984>
    10b8:	32303833          	0x32303833
    10bc:	3135                	jal	ce8 <_erodata+0xba8>
    10be:	3031                	jal	8ca <_erodata+0x78a>
    10c0:	3239                	jal	9ce <_erodata+0x88e>
    10c2:	3434                	fld	fa3,104(s0)
    10c4:	35393833          	0x35393833
    10c8:	3238                	fld	fa4,96(a2)
    10ca:	3732                	fld	fa4,296(sp)
    10cc:	3436                	fld	fs0,360(sp)
    10ce:	3536                	fld	fa0,360(sp)
    10d0:	6535                	lui	a0,0xd
    10d2:	342d                	jal	afc <_erodata+0x9bc>
    10d4:	3639                	jal	be2 <_erodata+0xaa2>
    10d6:	4c36                	lw	s8,76(sp)
    10d8:	4300                	lw	s0,0(a4)
    10da:	49464e4f          	fnmadd.s	ft8,fa2,fs4,fs1,rmm
    10de:	50435f47          	fmsub.s	ft10,ft6,ft4,fa0,unknown
    10e2:	5f55                	li	t5,-11
    10e4:	5548                	lw	a0,44(a0)
    10e6:	414d                	li	sp,19
    10e8:	5f4e                	lw	t5,240(sp)
    10ea:	414e                	lw	sp,208(sp)
    10ec:	454d                	li	a0,19
    10ee:	2220                	fld	fs0,64(a2)
    10f0:	6556                	flw	fa0,84(sp)
    10f2:	5278                	lw	a4,100(a2)
    10f4:	7369                	lui	t1,0xffffa
    10f6:	00227663          	bgeu	tp,sp,1102 <_erodata+0xfc2>
    10fa:	5f5f 6972 6373      	0x637369725f5f
    1100:	5f76                	lw	t5,124(sp)
    1102:	756d                	lui	a0,0xffffb
    1104:	646c                	flw	fa1,76(s0)
    1106:	7669                	lui	a2,0xffffa
    1108:	3120                	fld	fs0,96(a0)
    110a:	5f00                	lw	s0,56(a4)
    110c:	465f 544c 3436      	0x3436544c465f
    1112:	445f 4749 5f5f      	0x5f5f4749445f
    1118:	3120                	fld	fs0,96(a0)
    111a:	0035                	c.nop	13
    111c:	5f5f 4146 5453      	0x545341465f5f
    1122:	3631                	jal	c2e <_erodata+0xaee>
    1124:	0020                	addi	s0,sp,8
    1126:	5f5f 5441 4d4f      	0x4d4f54415f5f
    112c:	4349                	li	t1,18
    112e:	525f 4c45 5841      	0x58414c45525f
    1134:	4445                	li	s0,17
    1136:	3020                	fld	fs0,96(s0)
    1138:	5500                	lw	s0,40(a0)
    113a:	4e49                	li	t3,18
    113c:	5f54                	lw	a3,60(a4)
    113e:	454c                	lw	a1,12(a0)
    1140:	5341                	li	t1,-16
    1142:	3654                	fld	fa3,168(a2)
    1144:	5f34                	lw	a3,120(a4)
    1146:	414d                	li	sp,19
    1148:	2058                	fld	fa4,128(s0)
    114a:	5f28                	lw	a0,120(a4)
    114c:	555f 4e49 5f54      	0x5f544e49555f
    1152:	454c                	lw	a1,12(a0)
    1154:	5341                	li	t1,-16
    1156:	3654                	fld	fa3,168(a2)
    1158:	5f34                	lw	a3,120(a4)
    115a:	414d                	li	sp,19
    115c:	5f58                	lw	a4,60(a4)
    115e:	295f 5f00 535f      	0x535f5f00295f
    1164:	5a49                	li	s4,-14
    1166:	5f45                	li	t5,-15
    1168:	414d                	li	sp,19
    116a:	5f58                	lw	a4,60(a4)
    116c:	205f 7830 6666      	0x66667830205f
    1172:	6666                	flw	fa2,88(sp)
    1174:	6666                	flw	fa2,88(sp)
    1176:	6666                	flw	fa2,88(sp)
    1178:	0055                	c.nop	21
    117a:	555f 4e49 3354      	0x33544e49555f
    1180:	5f32                	lw	t5,44(sp)
    1182:	5f54                	lw	a3,60(a4)
    1184:	4544                	lw	s1,12(a0)
    1186:	52414c43          	fmadd.d	fs8,ft2,ft4,fa0,rmm
    118a:	4445                	li	s0,17
    118c:	0020                	addi	s0,sp,8
    118e:	5f5f 7570 6572      	0x657275705f5f
    1194:	5f20                	lw	s0,120(a4)
    1196:	615f 7474 6972      	0x69727474615f
    119c:	7562                	flw	fa0,56(sp)
    119e:	6574                	flw	fa3,76(a0)
    11a0:	5f5f 2828 5f5f      	0x5f5f28285f5f
    11a6:	7570                	flw	fa2,108(a0)
    11a8:	6572                	flw	fa0,28(sp)
    11aa:	5f5f 2929 5f00      	0x5f0029295f5f
    11b0:	465f 544c 3233      	0x3233544c465f
    11b6:	5f58                	lw	a4,60(a4)
    11b8:	4148                	lw	a0,4(a0)
    11ba:	4e495f53          	0x4e495f53
    11be:	4946                	lw	s2,80(sp)
    11c0:	494e                	lw	s2,208(sp)
    11c2:	5954                	lw	a3,52(a0)
    11c4:	5f5f 3120 5f00      	0x5f0031205f5f
    11ca:	5441                	li	s0,-16
    11cc:	4946                	lw	s2,80(sp)
    11ce:	454c                	lw	a1,12(a0)
    11d0:	535f 554f 4352      	0x4352554f535f
    11d6:	0045                	c.nop	17
    11d8:	5f5f 6f6e 735f      	0x735f6f6e5f5f
    11de:	6e61                	lui	t3,0x18
    11e0:	7469                	lui	s0,0xffffa
    11e2:	7a69                	lui	s4,0xffffa
    11e4:	5f65                	li	t5,-7
    11e6:	6461                	lui	s0,0x18
    11e8:	7264                	flw	fs1,100(a2)
    11ea:	7365                	lui	t1,0xffff9
    11ec:	5f5f2073          	csrs	0x5f5,t5
    11f0:	7461                	lui	s0,0xffff8
    11f2:	7274                	flw	fa3,100(a2)
    11f4:	6269                	lui	tp,0x1a
    11f6:	7475                	lui	s0,0xffffd
    11f8:	5f65                	li	t5,-7
    11fa:	285f 5f28 6e5f      	0x6e5f5f28285f
    1200:	61735f6f          	jal	t5,37016 <_erodata+0x36ed6>
    1204:	696e                	flw	fs2,216(sp)
    1206:	6974                	flw	fa3,84(a0)
    1208:	657a                	flw	fa0,156(sp)
    120a:	615f 6464 6572      	0x65726464615f
    1210:	5f5f7373          	csrrci	t1,0x5f5,30
    1214:	2929                	jal	162e <_erodata+0x14ee>
    1216:	4300                	lw	s0,0(a4)
    1218:	49464e4f          	fnmadd.s	ft8,fa2,fs4,fs1,rmm
    121c:	53435f47          	fmsub.d	ft10,ft6,fs4,fa0,unknown
    1220:	5f52                	lw	t5,52(sp)
    1222:	4c41                	li	s8,16
    1224:	4749                	li	a4,18
    1226:	4d4e                	lw	s10,208(sp)
    1228:	4e45                	li	t3,17
    122a:	2054                	fld	fa3,128(s0)
    122c:	5f003233          	0x5f003233
    1230:	4955                	li	s2,21
    1232:	544e                	lw	s0,240(sp)
    1234:	5f38                	lw	a4,120(a4)
    1236:	5f54                	lw	a3,60(a4)
    1238:	4544                	lw	s1,12(a0)
    123a:	52414c43          	fmadd.d	fs8,ft2,ft4,fa0,rmm
    123e:	4445                	li	s0,17
    1240:	0020                	addi	s0,sp,8
    1242:	5f5f 4e49 5f54      	0x5f544e495f5f
    1248:	4146                	lw	sp,80(sp)
    124a:	34365453          	0x34365453
    124e:	545f 5059 5f45      	0x5f455059545f
    1254:	205f 6f6c 676e      	0x676e6f6c205f
    125a:	6c20                	flw	fs0,88(s0)
    125c:	20676e6f          	jal	t3,77462 <_erodata+0x77322>
    1260:	6e69                	lui	t3,0x1a
    1262:	0074                	addi	a3,sp,12
    1264:	5f5f 4f43 434e      	0x434e4f435f5f
    126a:	5441                	li	s0,-16
    126c:	2831                	jal	1288 <_erodata+0x1148>
    126e:	2c78                	fld	fa4,216(s0)
    1270:	2979                	jal	170e <_erodata+0x15ce>
    1272:	7820                	flw	fs0,112(s0)
    1274:	2320                	fld	fs0,64(a4)
    1276:	00792023          	sw	t2,0(s2) # 5f002000 <_fstack+0x4effa000>
    127a:	5f5f 4c46 3154      	0x31544c465f5f
    1280:	3832                	fld	fa6,296(sp)
    1282:	485f 5341 515f      	0x515f5341485f
    1288:	4955                	li	s2,21
    128a:	5445                	li	s0,-15
    128c:	4e5f 4e41 5f5f      	0x5f5f4e414e5f
    1292:	3120                	fld	fs0,96(a0)
    1294:	5f00                	lw	s0,56(a4)
    1296:	5441                	li	s0,-16
    1298:	4946                	lw	s2,80(sp)
    129a:	454c                	lw	a1,12(a0)
    129c:	535f 554f 4352      	0x4352554f535f
    12a2:	2045                	jal	1342 <_erodata+0x1202>
    12a4:	0031                	c.nop	12
    12a6:	5f525343          	fmadd.q	ft6,ft4,fs5,fa1,unknown
    12aa:	4155                	li	sp,21
    12ac:	5452                	lw	s0,52(sp)
    12ae:	455f 5f56 4e45      	0x4e455f56455f
    12b4:	4241                	li	tp,16
    12b6:	454c                	lw	a1,12(a0)
    12b8:	415f 4444 2052      	0x20524444415f
    12be:	4328                	lw	a0,64(a4)
    12c0:	425f5253          	0x425f5253
    12c4:	5341                	li	t1,-16
    12c6:	2045                	jal	1366 <_erodata+0x1226>
    12c8:	7830202b          	0x7830202b
    12cc:	3431                	jal	cd8 <_erodata+0xb98>
    12ce:	294c                	fld	fa1,144(a0)
    12d0:	5f00                	lw	s0,56(a4)
    12d2:	495f 544e 4c5f      	0x4c5f544e495f
    12d8:	4145                	li	sp,17
    12da:	36315453          	0x36315453
    12de:	575f 4449 4854      	0x48544449575f
    12e4:	5f5f 3120 0036      	0x3631205f5f
    12ea:	5f5f 454c 5341      	0x5341454c5f5f
    12f0:	3654                	fld	fa3,168(a2)
    12f2:	2034                	fld	fa3,64(s0)
    12f4:	6c22                	flw	fs8,8(sp)
    12f6:	226c                	fld	fa1,192(a2)
    12f8:	5f00                	lw	s0,56(a4)
    12fa:	685f 7661 5f65      	0x5f657661685f
    1300:	6f6c                	flw	fa1,92(a4)
    1302:	676e                	flw	fa4,216(sp)
    1304:	6f6c                	flw	fa1,92(a4)
    1306:	676e                	flw	fa4,216(sp)
    1308:	3436                	fld	fs0,360(sp)
    130a:	3120                	fld	fs0,96(a0)
    130c:	5f00                	lw	s0,56(a4)
    130e:	4e49                	li	t3,18
    1310:	3354                	fld	fa3,160(a4)
    1312:	5f32                	lw	t5,44(sp)
    1314:	5145                	li	sp,-15
    1316:	4c5f 4e4f 2047      	0x20474e4f4c5f
    131c:	6900                	flw	fs0,16(a0)
    131e:	746e                	flw	fs0,248(sp)
    1320:	2b20                	fld	fs0,80(a4)
    1322:	0032                	c.slli	zero,0xc
    1324:	464e4f43          	fmadd.q	ft10,ft8,ft4,fs0,rmm
    1328:	4749                	li	a4,18
    132a:	435f 5550 4e5f      	0x4e5f5550435f
    1330:	2220504f          	fnmadd.d	ft0,ft0,ft2,ft4,unknown
    1334:	6f6e                	flw	ft10,216(sp)
    1336:	2270                	fld	fa2,192(a2)
    1338:	5f00                	lw	s0,56(a4)
    133a:	465f 544c 3233      	0x3233544c465f
    1340:	485f 5341 445f      	0x445f5341485f
    1346:	4e45                	li	t3,17
    1348:	5f4d524f          	fnmadd.q	ft4,fs10,fs4,fa1,unknown
    134c:	205f 0031 535f      	0x535f0031205f
    1352:	5359                	li	t1,-10
    1354:	5f5f 5453 4944      	0x494454535f5f
    135a:	544e                	lw	s0,240(sp)
    135c:	485f 0020 5f5f      	0x5f5f0020485f
    1362:	4f53424f          	fnmadd.q	ft4,ft6,fs5,fs1,rmm
    1366:	454c                	lw	a1,12(a0)
    1368:	4554                	lw	a3,12(a0)
    136a:	4d5f 5441 2048      	0x204854414d5f
    1370:	5f5f 424f 4f53      	0x4f53424f5f5f
    1376:	454c                	lw	a1,12(a0)
    1378:	4554                	lw	a3,12(a0)
    137a:	4d5f 5441 5f48      	0x5f4854414d5f
    1380:	4544                	lw	s1,12(a0)
    1382:	4146                	lw	sp,80(sp)
    1384:	4c55                	li	s8,21
    1386:	0054                	addi	a3,sp,4
    1388:	6f6c                	flw	fa1,92(a4)
    138a:	676e                	flw	fa4,216(sp)
    138c:	2b20                	fld	fs0,80(a4)
    138e:	0034                	addi	a3,sp,8
    1390:	5f5f 4e49 5f54      	0x5f544e495f5f
    1396:	4146                	lw	sp,80(sp)
    1398:	34365453          	0x34365453
    139c:	4d5f 5841 5f5f      	0x5f5f58414d5f
    13a2:	3020                	fld	fs0,96(s0)
    13a4:	3778                	fld	fa4,232(a4)
    13a6:	6666                	flw	fa2,88(sp)
    13a8:	6666                	flw	fa2,88(sp)
    13aa:	6666                	flw	fa2,88(sp)
    13ac:	6666                	flw	fa2,88(sp)
    13ae:	6666                	flw	fa2,88(sp)
    13b0:	6666                	flw	fa2,88(sp)
    13b2:	6666                	flw	fa2,88(sp)
    13b4:	4c66                	lw	s8,88(sp)
    13b6:	004c                	addi	a1,sp,4
    13b8:	5f5f 5353 5f50      	0x5f5053535f5f
    13be:	4f46                	lw	t5,80(sp)
    13c0:	5452                	lw	s0,52(sp)
    13c2:	4649                	li	a2,18
    13c4:	5f59                	li	t5,-10
    13c6:	454c                	lw	a1,12(a0)
    13c8:	4556                	lw	a0,84(sp)
    13ca:	204c                	fld	fa1,128(s0)
    13cc:	0030                	addi	a2,sp,8
    13ce:	5f525343          	fmadd.q	ft6,ft4,fs5,fa1,unknown
    13d2:	4155                	li	sp,21
    13d4:	5452                	lw	s0,52(sp)
    13d6:	545f 4558 504d      	0x504d4558545f
    13dc:	5954                	lw	a3,52(a0)
    13de:	415f 4444 2052      	0x20524444415f
    13e4:	4328                	lw	a0,64(a4)
    13e6:	425f5253          	0x425f5253
    13ea:	5341                	li	t1,-16
    13ec:	2045                	jal	148c <_erodata+0x134c>
    13ee:	7830202b          	0x7830202b
    13f2:	3831                	jal	c0e <_erodata+0xace>
    13f4:	294c                	fld	fa1,144(a0)
    13f6:	5f00                	lw	s0,56(a4)
    13f8:	465f 544c 445f      	0x445f544c465f
    13fe:	4749                	li	a4,18
    1400:	5f5f 3620 5f00      	0x5f0036205f5f
    1406:	495f 544e 465f      	0x465f544e495f
    140c:	5341                	li	t1,-16
    140e:	3154                	fld	fa3,160(a0)
    1410:	5f36                	lw	t5,108(sp)
    1412:	414d                	li	sp,19
    1414:	5f58                	lw	a4,60(a4)
    1416:	205f 7830 6637      	0x66377830205f
    141c:	6666                	flw	fa2,88(sp)
    141e:	6666                	flw	fa2,88(sp)
    1420:	6666                	flw	fa2,88(sp)
    1422:	4900                	lw	s0,16(a0)
    1424:	544e                	lw	s0,240(sp)
    1426:	465f 5341 3354      	0x33545341465f
    142c:	5f32                	lw	t5,44(sp)
    142e:	494d                	li	s2,19
    1430:	204e                	fld	ft0,208(sp)
    1432:	2d28                	fld	fa0,88(a0)
    1434:	5f5f 4e49 5f54      	0x5f544e495f5f
    143a:	4146                	lw	sp,80(sp)
    143c:	32335453          	0x32335453
    1440:	4d5f 5841 5f5f      	0x5f5f58414d5f
    1446:	2d20                	fld	fs0,88(a0)
    1448:	3120                	fld	fs0,96(a0)
    144a:	0029                	c.nop	10
    144c:	5f525343          	fmadd.q	ft6,ft4,fs5,fa1,unknown
    1450:	4155                	li	sp,21
    1452:	5452                	lw	s0,52(sp)
    1454:	455f 5f56 4e45      	0x4e455f56455f
    145a:	4241                	li	tp,16
    145c:	454c                	lw	a1,12(a0)
    145e:	525f 5f58 464f      	0x464f5f58525f
    1464:	5346                	lw	t1,112(sp)
    1466:	5445                	li	s0,-15
    1468:	3120                	fld	fs0,96(a0)
    146a:	4300                	lw	s0,0(a4)
    146c:	555f5253          	0x555f5253
    1470:	5241                	li	tp,-16
    1472:	5f54                	lw	a3,60(a4)
    1474:	5645                	li	a2,-15
    1476:	455f 414e 4c42      	0x4c42414e455f
    147c:	5f45                	li	t5,-15
    147e:	5854                	lw	a3,52(s0)
    1480:	535f 5a49 2045      	0x20455a49535f
    1486:	0031                	c.nop	12
    1488:	5f5f 4c46 3654      	0x36544c465f5f
    148e:	5f34                	lw	a3,120(a4)
    1490:	5045                	c.li	zero,-15
    1492:	4f4c4953          	0x4f4c4953
    1496:	5f4e                	lw	t5,240(sp)
    1498:	205f 2e32 3232      	0x32322e32205f
    149e:	3430                	fld	fa2,104(s0)
    14a0:	3634                	fld	fa3,104(a2)
    14a2:	3430                	fld	fa2,104(s0)
    14a4:	3239                	jal	db2 <_erodata+0xc72>
    14a6:	3035                	jal	cd2 <_erodata+0xb92>
    14a8:	30333133          	0x30333133
    14ac:	3038                	fld	fa4,96(s0)
    14ae:	3438                	fld	fa4,104(s0)
    14b0:	33363237          	lui	tp,0x33363
    14b4:	31363333          	0x31363333
    14b8:	3138                	fld	fa4,96(a0)
    14ba:	3436                	fld	fs0,360(sp)
    14bc:	3630                	fld	fa2,104(a2)
    14be:	6532                	flw	fa0,12(sp)
    14c0:	312d                	jal	10ea <_erodata+0xfaa>
    14c2:	4636                	lw	a2,76(sp)
    14c4:	3436                	fld	fs0,360(sp)
    14c6:	5f00                	lw	s0,56(a4)
    14c8:	4955                	li	s2,21
    14ca:	544e                	lw	s0,240(sp)
    14cc:	414d                	li	sp,19
    14ce:	5f58                	lw	a4,60(a4)
    14d0:	5f54                	lw	a3,60(a4)
    14d2:	4544                	lw	s1,12(a0)
    14d4:	52414c43          	fmadd.d	fs8,ft2,ft4,fa0,rmm
    14d8:	4445                	li	s0,17
    14da:	0020                	addi	s0,sp,8
    14dc:	5f5f 4c46 3154      	0x31544c465f5f
    14e2:	3832                	fld	fa6,296(sp)
    14e4:	4d5f 4e49 455f      	0x455f4e494d5f
    14ea:	5058                	lw	a4,36(s0)
    14ec:	5f5f 2820 312d      	0x312d28205f5f
    14f2:	3336                	fld	ft6,360(sp)
    14f4:	3138                	fld	fa4,96(a0)
    14f6:	0029                	c.nop	10
    14f8:	5f5f 5450 4452      	0x445254505f5f
    14fe:	4649                	li	a2,18
    1500:	5f46                	lw	t5,112(sp)
    1502:	414d                	li	sp,19
    1504:	5f58                	lw	a4,60(a4)
    1506:	205f 7830 6637      	0x66377830205f
    150c:	6666                	flw	fa2,88(sp)
    150e:	6666                	flw	fa2,88(sp)
    1510:	6666                	flw	fa2,88(sp)
    1512:	5f00                	lw	s0,56(a4)
    1514:	465f 544c 3233      	0x3233544c465f
    151a:	485f 5341 515f      	0x515f5341485f
    1520:	4955                	li	s2,21
    1522:	5445                	li	s0,-15
    1524:	4e5f 4e41 5f5f      	0x5f5f4e414e5f
    152a:	3120                	fld	fs0,96(a0)
    152c:	5500                	lw	s0,40(a0)
    152e:	4e49                	li	t3,18
    1530:	3354                	fld	fa3,160(a4)
    1532:	5f32                	lw	t5,44(sp)
    1534:	414d                	li	sp,19
    1536:	2058                	fld	fa4,128(s0)
    1538:	5f28                	lw	a0,120(a4)
    153a:	555f 4e49 3354      	0x33544e49555f
    1540:	5f32                	lw	t5,44(sp)
    1542:	414d                	li	sp,19
    1544:	5f58                	lw	a4,60(a4)
    1546:	295f 5f00 555f      	0x555f5f00295f
    154c:	4e49                	li	t3,18
    154e:	5f54                	lw	a3,60(a4)
    1550:	454c                	lw	a1,12(a0)
    1552:	5341                	li	t1,-16
    1554:	3154                	fld	fa3,160(a0)
    1556:	5f36                	lw	t5,108(sp)
    1558:	414d                	li	sp,19
    155a:	5f58                	lw	a4,60(a4)
    155c:	205f 7830 6666      	0x66667830205f
    1562:	6666                	flw	fa2,88(sp)
    1564:	5f00                	lw	s0,56(a4)
    1566:	475f 554e 5f43      	0x5f43554e475f
    156c:	205f 3031 5f00      	0x5f003031205f
    1572:	555f 4e49 5f54      	0x5f544e49555f
    1578:	4146                	lw	sp,80(sp)
    157a:	34365453          	0x34365453
    157e:	545f 5059 5f45      	0x5f455059545f
    1584:	205f 6f6c 676e      	0x676e6f6c205f
    158a:	6c20                	flw	fs0,88(s0)
    158c:	20676e6f          	jal	t3,77792 <_erodata+0x77652>
    1590:	6e75                	lui	t3,0x1d
    1592:	6e676973          	csrrsi	s2,0x6e6,14
    1596:	6465                	lui	s0,0x19
    1598:	6920                	flw	fs0,80(a0)
    159a:	746e                	flw	fs0,248(sp)
    159c:	5f00                	lw	s0,56(a4)
    159e:	5f535953          	0x5f535953
    15a2:	4546                	lw	a0,80(sp)
    15a4:	5441                	li	s0,-16
    15a6:	5255                	li	tp,-11
    15a8:	5345                	li	t1,-15
    15aa:	485f 0020 5f5f      	0x5f5f0020485f
    15b0:	4e49                	li	t3,18
    15b2:	3654                	fld	fa3,168(a2)
    15b4:	5f34                	lw	a3,120(a4)
    15b6:	414d                	li	sp,19
    15b8:	5f58                	lw	a4,60(a4)
    15ba:	205f 7830 6637      	0x66377830205f
    15c0:	6666                	flw	fa2,88(sp)
    15c2:	6666                	flw	fa2,88(sp)
    15c4:	6666                	flw	fa2,88(sp)
    15c6:	6666                	flw	fa2,88(sp)
    15c8:	6666                	flw	fa2,88(sp)
    15ca:	6666                	flw	fa2,88(sp)
    15cc:	6666                	flw	fa2,88(sp)
    15ce:	4c4c                	lw	a1,28(s0)
    15d0:	5f00                	lw	s0,56(a4)
    15d2:	575f 4843 5241      	0x52414843575f
    15d8:	545f 5059 5f45      	0x5f455059545f
    15de:	205f 6e69 0074      	0x746e69205f
    15e4:	5f5f 4e49 3854      	0x38544e495f5f
    15ea:	4d5f 5841 5f5f      	0x5f5f58414d5f
    15f0:	3020                	fld	fs0,96(s0)
    15f2:	3778                	fld	fa4,232(a4)
    15f4:	0066                	c.slli	zero,0x19
    15f6:	5f5f 4e49 5f54      	0x5f544e495f5f
    15fc:	454c                	lw	a1,12(a0)
    15fe:	5341                	li	t1,-16
    1600:	3854                	fld	fa3,176(s0)
    1602:	545f 5059 5f45      	0x5f455059545f
    1608:	205f 6973 6e67      	0x6e676973205f
    160e:	6465                	lui	s0,0x19
    1610:	6320                	flw	fs0,64(a4)
    1612:	6168                	flw	fa0,68(a0)
    1614:	0072                	c.slli	zero,0x1c
    1616:	5f5f 4e49 5f54      	0x5f544e495f5f
    161c:	454c                	lw	a1,12(a0)
    161e:	5341                	li	t1,-16
    1620:	3354                	fld	fa3,160(a4)
    1622:	5f32                	lw	t5,44(sp)
    1624:	5954                	lw	a3,52(a0)
    1626:	4550                	lw	a2,12(a0)
    1628:	5f5f 6c20 6e6f      	0x6e6f6c205f5f
    162e:	6e692067          	0x6e692067
    1632:	0074                	addi	a3,sp,12
    1634:	5f5f 454c 5341      	0x5341454c5f5f
    163a:	3154                	fld	fa3,160(a0)
    163c:	2036                	fld	ft0,328(sp)
    163e:	6822                	flw	fa6,8(sp)
    1640:	0022                	c.slli	zero,0x8
    1642:	5f5f 4c46 3154      	0x31544c465f5f
    1648:	3832                	fld	fa6,296(sp)
    164a:	4d5f 5841 455f      	0x455f58414d5f
    1650:	5058                	lw	a4,36(s0)
    1652:	5f5f 3120 3336      	0x333631205f5f
    1658:	3438                	fld	fa4,104(s0)
    165a:	5f00                	lw	s0,56(a4)
    165c:	555f 4e49 5f54      	0x5f544e49555f
    1662:	454c                	lw	a1,12(a0)
    1664:	5341                	li	t1,-16
    1666:	3654                	fld	fa3,168(a2)
    1668:	5f34                	lw	a3,120(a4)
    166a:	414d                	li	sp,19
    166c:	5f58                	lw	a4,60(a4)
    166e:	205f 7830 6666      	0x66667830205f
    1674:	6666                	flw	fa2,88(sp)
    1676:	6666                	flw	fa2,88(sp)
    1678:	6666                	flw	fa2,88(sp)
    167a:	6666                	flw	fa2,88(sp)
    167c:	6666                	flw	fa2,88(sp)
    167e:	6666                	flw	fa2,88(sp)
    1680:	6666                	flw	fa2,88(sp)
    1682:	4c55                	li	s8,21
    1684:	004c                	addi	a1,sp,4
    1686:	5f5f 4c46 5f54      	0x5f544c465f5f
    168c:	4152                	lw	sp,20(sp)
    168e:	4944                	lw	s1,20(a0)
    1690:	5f58                	lw	a4,60(a4)
    1692:	205f 0032 5f5f      	0x5f5f0032205f
    1698:	4c46                	lw	s8,80(sp)
    169a:	3354                	fld	fa3,160(a4)
    169c:	5832                	lw	a6,44(sp)
    169e:	445f 4e45 524f      	0x524f4e45445f
    16a4:	5f4d                	li	t5,-13
    16a6:	494d                	li	s2,19
    16a8:	5f4e                	lw	t5,240(sp)
    16aa:	205f 2e34 3439      	0x34392e34205f
    16b0:	3630                	fld	fa2,104(a2)
    16b2:	3635                	jal	11de <_erodata+0x109e>
    16b4:	3534                	fld	fa3,104(a0)
    16b6:	3438                	fld	fa4,104(s0)
    16b8:	3231                	jal	fc4 <_erodata+0xe84>
    16ba:	3634                	fld	fa3,104(a2)
    16bc:	3435                	jal	10e8 <_erodata+0xfa8>
    16be:	3134                	fld	fa3,96(a0)
    16c0:	36353637          	lui	a2,0x36353
    16c4:	3738                	fld	fa4,104(a4)
    16c6:	3239                	jal	fd4 <_erodata+0xe94>
    16c8:	3638                	fld	fa4,104(a2)
    16ca:	3238                	fld	fa4,96(a2)
    16cc:	3132                	fld	ft2,296(sp)
    16ce:	65323733          	0x65323733
    16d2:	332d                	jal	13fc <_erodata+0x12bc>
    16d4:	3432                	fld	fs0,296(sp)
    16d6:	3346                	fld	ft6,112(sp)
    16d8:	7832                	flw	fa6,44(sp)
    16da:	5f00                	lw	s0,56(a4)
    16dc:	505f 544d 6128      	0x6128544d505f
    16e2:	6772                	flw	fa4,28(sp)
    16e4:	61202973          	csrr	s2,0x612
    16e8:	6772                	flw	fa4,28(sp)
    16ea:	5f5f0073          	0x5f5f0073
    16ee:	746e6f63          	bltu	t3,t1,1e4c <_erodata+0x1d0c>
    16f2:	6961                	lui	s2,0x18
    16f4:	656e                	flw	fa0,216(sp)
    16f6:	6f72                	flw	ft10,28(sp)
    16f8:	2866                	fld	fa6,88(sp)
    16fa:	2c78                	fld	fa4,216(s0)
    16fc:	296d2c73          	csrrs	s8,0x296,s10
    1700:	2820                	fld	fs0,80(s0)
    1702:	6f63207b          	0x6f63207b
    1706:	736e                	flw	ft6,248(sp)
    1708:	2074                	fld	fa3,192(s0)
    170a:	6f76                	flw	ft10,92(sp)
    170c:	616c                	flw	fa1,68(a0)
    170e:	6974                	flw	fa3,84(a0)
    1710:	656c                	flw	fa1,76(a0)
    1712:	5f20                	lw	s0,120(a4)
    1714:	745f 7079 6f65      	0x6f657079745f
    171a:	2866                	fld	fa6,88(sp)
    171c:	2828                	fld	fa0,80(s0)
    171e:	292a2073          	csrs	0x292,s4
    1722:	2930                	fld	fa2,80(a0)
    1724:	3e2d                	jal	125e <_erodata+0x111e>
    1726:	296d                	jal	1be0 <_erodata+0x1aa0>
    1728:	2a20                	fld	fs0,80(a2)
    172a:	5f5f 2078 203d      	0x203d20785f5f
    1730:	7828                	flw	fa0,112(s0)
    1732:	3b29                	jal	144c <_erodata+0x130c>
    1734:	2820                	fld	fs0,80(s0)
    1736:	7328                	flw	fa0,96(a4)
    1738:	2a20                	fld	fs0,80(a2)
    173a:	2029                	jal	1744 <_erodata+0x1604>
    173c:	7528                	flw	fa0,104(a0)
    173e:	6e69                	lui	t3,0x1a
    1740:	7074                	flw	fa3,100(s0)
    1742:	7274                	flw	fa3,100(a2)
    1744:	745f 2029 2828      	0x28282029745f
    174a:	736e6f63          	bltu	t3,s6,1e88 <_erodata+0x1d48>
    174e:	2074                	fld	fa3,192(s0)
    1750:	6f76                	flw	ft10,92(sp)
    1752:	616c                	flw	fa1,68(a0)
    1754:	6974                	flw	fa3,84(a0)
    1756:	656c                	flw	fa1,76(a0)
    1758:	6320                	flw	fs0,64(a4)
    175a:	6168                	flw	fa0,68(a0)
    175c:	2072                	fld	ft0,280(sp)
    175e:	292a                	fld	fs2,136(sp)
    1760:	5f5f 2078 202d      	0x202d20785f5f
    1766:	5f5f 666f 7366      	0x7366666f5f5f
    176c:	7465                	lui	s0,0xffff9
    176e:	7328666f          	jal	a2,87ea0 <_erodata+0x87d60>
    1772:	202c                	fld	fa1,64(s0)
    1774:	296d                	jal	1c2e <_erodata+0x1aee>
    1776:	2929                	jal	1b90 <_erodata+0x1a50>
    1778:	297d203b          	0x297d203b
    177c:	5f00                	lw	s0,56(a4)
    177e:	535f 5a49 4f45      	0x4f455a49535f
    1784:	5f46                	lw	t5,112(sp)
    1786:	4f4c                	lw	a1,28(a4)
    1788:	474e                	lw	a4,208(sp)
    178a:	445f 554f 4c42      	0x4c42554f445f
    1790:	5f45                	li	t5,-15
    1792:	205f 3631 5f00      	0x5f003631205f
    1798:	445f 4c42 485f      	0x485f4c42445f
    179e:	5341                	li	t1,-16
    17a0:	515f 4955 5445      	0x54454955515f
    17a6:	4e5f 4e41 5f5f      	0x5f5f4e414e5f
    17ac:	3120                	fld	fs0,96(a0)
    17ae:	5f00                	lw	s0,56(a4)
    17b0:	495f 544e 465f      	0x465f544e495f
    17b6:	5341                	li	t1,-16
    17b8:	3854                	fld	fa3,176(s0)
    17ba:	545f 5059 5f45      	0x5f455059545f
    17c0:	205f 6e69 0074      	0x746e69205f
    17c6:	464e4f43          	fmadd.q	ft10,ft8,ft4,fs0,rmm
    17ca:	4749                	li	a4,18
    17cc:	435f 4f4c 4b43      	0x4b434f4c435f
    17d2:	465f 4552 5551      	0x55514552465f
    17d8:	4e45                	li	t3,17
    17da:	31205943          	fmadd.s	fs2,ft0,fs2,ft6,unknown
    17de:	3030                	fld	fa2,96(s0)
    17e0:	3030                	fld	fa2,96(s0)
    17e2:	3030                	fld	fa2,96(s0)
    17e4:	0030                	addi	a2,sp,8
    17e6:	5f5f 4c46 3654      	0x36544c465f5f
    17ec:	5f34                	lw	a3,120(a4)
    17ee:	4148                	lw	a0,4(a0)
    17f0:	4e495f53          	0x4e495f53
    17f4:	4946                	lw	s2,80(sp)
    17f6:	494e                	lw	s2,208(sp)
    17f8:	5954                	lw	a3,52(a0)
    17fa:	5f5f 3120 5f00      	0x5f0031205f5f
    1800:	4c5f 4244 5f4c      	0x5f4c42444c5f
    1806:	414d                	li	sp,19
    1808:	5f58                	lw	a4,60(a4)
    180a:	5845                	li	a6,-15
    180c:	5f50                	lw	a2,60(a4)
    180e:	205f 3631 3833      	0x38333631205f
    1814:	0034                	addi	a3,sp,8
    1816:	5f5f 6970 6f63      	0x6f6369705f5f
    181c:	696c                	flw	fa1,84(a0)
    181e:	6362                	flw	ft6,24(sp)
    1820:	665f 726f 616d      	0x616d726f665f
    1826:	2874                	fld	fa3,208(s0)
    1828:	2c61                	jal	1ac0 <_erodata+0x1980>
    182a:	2c62                	fld	fs8,24(sp)
    182c:	5f202963          	0x5f202963
    1830:	615f 7474 6972      	0x69727474615f
    1836:	7562                	flw	fa0,56(sp)
    1838:	6574                	flw	fa3,76(a0)
    183a:	5f5f 2828 5f5f      	0x5f5f28285f5f
    1840:	6f66                	flw	ft10,88(sp)
    1842:	6d72                	flw	fs10,28(sp)
    1844:	7461                	lui	s0,0xffff8
    1846:	5f5f 6128 622c      	0x622c61285f5f
    184c:	632c                	flw	fa1,64(a4)
    184e:	2929                	jal	1c68 <_erodata+0x1b28>
    1850:	0029                	c.nop	10
    1852:	5f5f 6170 6b63      	0x6b6361705f5f
    1858:	6465                	lui	s0,0x19
    185a:	5f20                	lw	s0,120(a4)
    185c:	615f 7474 6972      	0x69727474615f
    1862:	7562                	flw	fa0,56(sp)
    1864:	6574                	flw	fa3,76(a0)
    1866:	5f5f 2828 5f5f      	0x5f5f28285f5f
    186c:	6170                	flw	fa2,68(a0)
    186e:	64656b63          	bltu	a0,t1,1ec4 <_erodata+0x1d84>
    1872:	5f5f 2929 5f00      	0x5f0029295f5f
    1878:	555f 4e49 5054      	0x50544e49555f
    187e:	5254                	lw	a3,36(a2)
    1880:	545f 5059 5f45      	0x5f455059545f
    1886:	205f 6e75 6973      	0x69736e75205f
    188c:	64656e67          	0x64656e67
    1890:	6920                	flw	fs0,80(a0)
    1892:	746e                	flw	fs0,248(sp)
    1894:	6300                	flw	fs0,0(a4)
    1896:	775f7273          	csrrci	tp,0x775,30
    189a:	6972                	flw	fs2,28(sp)
    189c:	6574                	flw	fa3,76(a0)
    189e:	735f 6d69 6c70      	0x6c706d69735f
    18a4:	0065                	c.nop	25
    18a6:	5f5f 7473 6f72      	0x6f7274735f5f
    18ac:	676e                	flw	fa4,216(sp)
    18ae:	725f 6665 7265      	0x72656665725f
    18b4:	6e65                	lui	t3,0x19
    18b6:	73286563          	bltu	a6,s2,1fe0 <_erodata+0x1ea0>
    18ba:	6d79                	lui	s10,0x1e
    18bc:	612c                	flw	fa1,64(a0)
    18be:	696c                	flw	fa1,84(a0)
    18c0:	7361                	lui	t1,0xffff8
    18c2:	296d7973          	csrrci	s2,0x296,26
    18c6:	6520                	flw	fs0,72(a0)
    18c8:	7478                	flw	fa4,108(s0)
    18ca:	7265                	lui	tp,0xffff9
    18cc:	206e                	fld	ft0,216(sp)
    18ce:	5f5f 7974 6570      	0x657079745f5f
    18d4:	2820666f          	jal	a2,7b56 <_erodata+0x7a16>
    18d8:	296d7973          	csrrci	s2,0x296,26
    18dc:	6120                	flw	fs0,64(a0)
    18de:	696c                	flw	fa1,84(a0)
    18e0:	7361                	lui	t1,0xffff8
    18e2:	206d7973          	csrrci	s2,0x206,26
    18e6:	5f5f 7461 7274      	0x727474615f5f
    18ec:	6269                	lui	tp,0x1a
    18ee:	7475                	lui	s0,0xffffd
    18f0:	5f65                	li	t5,-7
    18f2:	205f 2828 5f5f      	0x5f5f2828205f
    18f8:	6c61                	lui	s8,0x18
    18fa:	6169                	addi	sp,sp,208
    18fc:	205f5f73          	csrrwi	t5,0x205,30
    1900:	5f28                	lw	a0,120(a4)
    1902:	535f 5254 4e49      	0x4e495254535f
    1908:	79732847          	fmsub.s	fa6,ft6,fs7,fa5,rdn
    190c:	296d                	jal	1dc6 <_erodata+0x1c86>
    190e:	2929                	jal	1d28 <_erodata+0x1be8>
    1910:	0029                	c.nop	10
    1912:	5f5f 4347 5f43      	0x5f4343475f5f
    1918:	5441                	li	s0,-16
    191a:	43494d4f          	fnmadd.d	fs10,fs2,fs4,fs0,rmm
    191e:	495f 544e 4c5f      	0x4c5f544e495f
    1924:	5f4b434f          	fnmadd.q	ft6,fs6,fs4,fa1,rmm
    1928:	5246                	lw	tp,112(sp)
    192a:	4545                	li	a0,17
    192c:	3120                	fld	fs0,96(a0)
    192e:	4c00                	lw	s0,24(s0)
    1930:	5449                	li	s0,-14
    1932:	5845                	li	a6,-15
    1934:	435f 5253 415f      	0x415f5253435f
    193a:	53454343          	fmadd.d	ft6,fa0,fs4,fa0,rmm
    193e:	55465f53          	0x55465f53
    1942:	434e                	lw	t1,208(sp)
    1944:	4954                	lw	a3,20(a0)
    1946:	20534e4f          	fnmadd.s	ft8,ft6,ft5,ft4,rmm
    194a:	0031                	c.nop	12
    194c:	5f5f 4e49 4d54      	0x4d544e495f5f
    1952:	5841                	li	a6,-16
    1954:	4d5f 5841 5f5f      	0x5f5f58414d5f
    195a:	3020                	fld	fs0,96(s0)
    195c:	3778                	fld	fa4,232(a4)
    195e:	6666                	flw	fa2,88(sp)
    1960:	6666                	flw	fa2,88(sp)
    1962:	6666                	flw	fa2,88(sp)
    1964:	6666                	flw	fa2,88(sp)
    1966:	6666                	flw	fa2,88(sp)
    1968:	6666                	flw	fa2,88(sp)
    196a:	6666                	flw	fa2,88(sp)
    196c:	4c66                	lw	s8,88(sp)
    196e:	004c                	addi	a1,sp,4
    1970:	555f 4e49 3654      	0x36544e49555f
    1976:	5f34                	lw	a3,120(a4)
    1978:	5f54                	lw	a3,60(a4)
    197a:	4544                	lw	s1,12(a0)
    197c:	52414c43          	fmadd.d	fs8,ft2,ft4,fa0,rmm
    1980:	4445                	li	s0,17
    1982:	0020                	addi	s0,sp,8
    1984:	505f 534f 5849      	0x5849534f505f
    198a:	435f 535f 554f      	0x554f535f435f
    1990:	4352                	lw	t1,20(sp)
    1992:	2045                	jal	1a32 <_erodata+0x18f2>
    1994:	3032                	fld	ft0,296(sp)
    1996:	3432                	fld	fs0,296(sp)
    1998:	3530                	fld	fa2,104(a0)
    199a:	004c                	addi	a1,sp,4
    199c:	4955                	li	s2,21
    199e:	544e                	lw	s0,240(sp)
    19a0:	414d                	li	sp,19
    19a2:	5f58                	lw	a4,60(a4)
    19a4:	414d                	li	sp,19
    19a6:	2058                	fld	fa4,128(s0)
    19a8:	5f28                	lw	a0,120(a4)
    19aa:	555f 4e49 4d54      	0x4d544e49555f
    19b0:	5841                	li	a6,-16
    19b2:	4d5f 5841 5f5f      	0x5f5f58414d5f
    19b8:	0029                	c.nop	10
    19ba:	4955                	li	s2,21
    19bc:	544e                	lw	s0,240(sp)
    19be:	3631                	jal	14ca <_erodata+0x138a>
    19c0:	4d5f 5841 2820      	0x282058414d5f
    19c6:	5f5f 4955 544e      	0x544e49555f5f
    19cc:	3631                	jal	14d8 <_erodata+0x1398>
    19ce:	4d5f 5841 5f5f      	0x5f5f58414d5f
    19d4:	0029                	c.nop	10
    19d6:	4e49                	li	t3,18
    19d8:	5f54                	lw	a3,60(a4)
    19da:	4146                	lw	sp,80(sp)
    19dc:	36315453          	0x36315453
    19e0:	4d5f 5841 2820      	0x282058414d5f
    19e6:	5f5f 4e49 5f54      	0x5f544e495f5f
    19ec:	4146                	lw	sp,80(sp)
    19ee:	36315453          	0x36315453
    19f2:	4d5f 5841 5f5f      	0x5f5f58414d5f
    19f8:	0029                	c.nop	10
    19fa:	5f5f 5349 5f4f      	0x5f4f53495f5f
    1a00:	49565f43          	fmadd.s	ft10,fa2,fs5,fs1,unknown
    1a04:	4c424953          	0x4c424953
    1a08:	2045                	jal	1aa8 <_erodata+0x1968>
    1a0a:	3931                	jal	1626 <_erodata+0x14e6>
    1a0c:	3939                	jal	162a <_erodata+0x14ea>
    1a0e:	5f00                	lw	s0,56(a4)
    1a10:	615f 6c6c 636f      	0x636f6c6c615f
    1a16:	735f 7a69 2865      	0x28657a69735f
    1a1c:	2961                	jal	1eb4 <_erodata+0x1d74>
    1a1e:	5f20                	lw	s0,120(a4)
    1a20:	615f 7474 6972      	0x69727474615f
    1a26:	7562                	flw	fa0,56(sp)
    1a28:	6574                	flw	fa3,76(a0)
    1a2a:	5f5f 2820 5f28      	0x5f2828205f5f
    1a30:	615f 6c6c 636f      	0x636f6c6c615f
    1a36:	735f 7a69 5f65      	0x5f657a69735f
    1a3c:	285f 2961 2929      	0x29292961285f
    1a42:	5f00                	lw	s0,56(a4)
    1a44:	465f 544c 3436      	0x3436544c465f
    1a4a:	4d5f 5841 315f      	0x315f58414d5f
    1a50:	5f30                	lw	a2,120(a4)
    1a52:	5845                	li	a6,-15
    1a54:	5f50                	lw	a2,60(a4)
    1a56:	205f 3033 0038      	0x383033205f
    1a5c:	5f5f 524f 4544      	0x4544524f5f5f
    1a62:	5f52                	lw	t5,52(sp)
    1a64:	494c                	lw	a1,20(a0)
    1a66:	5454                	lw	a3,44(s0)
    1a68:	454c                	lw	a1,12(a0)
    1a6a:	455f 444e 4149      	0x4149444e455f
    1a70:	5f4e                	lw	t5,240(sp)
    1a72:	205f 3231 3433      	0x34333231205f
    1a78:	5f00                	lw	s0,56(a4)
    1a7a:	535f 5a49 4f45      	0x4f455a49535f
    1a80:	5f46                	lw	t5,112(sp)
    1a82:	5450                	lw	a2,44(s0)
    1a84:	4452                	lw	s0,20(sp)
    1a86:	4649                	li	a2,18
    1a88:	5f46                	lw	t5,112(sp)
    1a8a:	5f54                	lw	a3,60(a4)
    1a8c:	205f 0034 4e49      	0x4e490034205f
    1a92:	5f54                	lw	a3,60(a4)
    1a94:	454c                	lw	a1,12(a0)
    1a96:	5341                	li	t1,-16
    1a98:	3854                	fld	fa3,176(s0)
    1a9a:	4d5f 4e49 2820      	0x28204e494d5f
    1aa0:	5f2d                	li	t5,-21
    1aa2:	495f 544e 4c5f      	0x4c5f544e495f
    1aa8:	4145                	li	sp,17
    1aaa:	5f385453          	0x5f385453
    1aae:	414d                	li	sp,19
    1ab0:	5f58                	lw	a4,60(a4)
    1ab2:	205f 202d 2931      	0x2931202d205f
    1ab8:	5f00                	lw	s0,56(a4)
    1aba:	5f5f 6e69 3674      	0x36746e695f5f
    1ac0:	5f34                	lw	a3,120(a4)
    1ac2:	5f74                	lw	a3,124(a4)
    1ac4:	6564                	flw	fs1,76(a0)
    1ac6:	6966                	flw	fs2,88(sp)
    1ac8:	656e                	flw	fa0,216(sp)
    1aca:	2064                	fld	fs1,192(s0)
    1acc:	0031                	c.nop	12
    1ace:	5f5f 4c46 5f54      	0x5f544c465f5f
    1ad4:	4148                	lw	a0,4(a0)
    1ad6:	55515f53          	0x55515f53
    1ada:	4549                	li	a0,18
    1adc:	5f54                	lw	a3,60(a4)
    1ade:	414e                	lw	sp,208(sp)
    1ae0:	5f4e                	lw	t5,240(sp)
    1ae2:	205f 0031 4e49      	0x4e490031205f
    1ae8:	3154                	fld	fa3,160(a0)
    1aea:	5f36                	lw	t5,108(sp)
    1aec:	29782843          	fmadd.s	fa6,fa6,fs7,ft5,rdn
    1af0:	5f20                	lw	s0,120(a4)
    1af2:	495f 544e 3631      	0x3631544e495f
    1af8:	435f 7828 0029      	0x297828435f
    1afe:	5f5f 4c46 3654      	0x36544c465f5f
    1b04:	5834                	lw	a3,112(s0)
    1b06:	445f 4749 5f5f      	0x5f5f4749445f
    1b0c:	3320                	fld	fs0,96(a4)
    1b0e:	5f5f0033          	0x5f5f0033
    1b12:	4c46                	lw	s8,80(sp)
    1b14:	3654                	fld	fa3,168(a2)
    1b16:	5834                	lw	a3,112(s0)
    1b18:	485f 5341 445f      	0x445f5341485f
    1b1e:	4e45                	li	t3,17
    1b20:	5f4d524f          	fnmadd.q	ft4,fs10,fs4,fa1,unknown
    1b24:	205f 0031 4e49      	0x4e490031205f
    1b2a:	5f54                	lw	a3,60(a4)
    1b2c:	4146                	lw	sp,80(sp)
    1b2e:	32335453          	0x32335453
    1b32:	4d5f 5841 2820      	0x282058414d5f
    1b38:	5f5f 4e49 5f54      	0x5f544e495f5f
    1b3e:	4146                	lw	sp,80(sp)
    1b40:	32335453          	0x32335453
    1b44:	4d5f 5841 5f5f      	0x5f5f58414d5f
    1b4a:	0029                	c.nop	10
    1b4c:	5f525343          	fmadd.q	ft6,ft4,fs5,fa1,unknown
    1b50:	4155                	li	sp,21
    1b52:	5452                	lw	s0,52(sp)
    1b54:	525f 5458 5f58      	0x5f585458525f
    1b5a:	455a4953          	0x455a4953
    1b5e:	3120                	fld	fs0,96(a0)
    1b60:	5f00                	lw	s0,56(a4)
    1b62:	485f 5641 5f45      	0x5f455641485f
    1b68:	5542                	lw	a0,48(sp)
    1b6a:	4c49                	li	s8,18
    1b6c:	4954                	lw	a3,20(a0)
    1b6e:	5f4e                	lw	t5,240(sp)
    1b70:	4646                	lw	a2,80(sp)
    1b72:	204c4c53          	0x204c4c53
    1b76:	0031                	c.nop	12
    1b78:	5f525343          	fmadd.q	ft6,ft4,fs5,fa1,unknown
    1b7c:	4155                	li	sp,21
    1b7e:	5452                	lw	s0,52(sp)
    1b80:	455f 5f56 5453      	0x54535f56455f
    1b86:	5441                	li	s0,-16
    1b88:	5355                	li	t1,-11
    1b8a:	525f 5f58 464f      	0x464f5f58525f
    1b90:	5346                	lw	t1,112(sp)
    1b92:	5445                	li	s0,-15
    1b94:	3120                	fld	fs0,96(a0)
    1b96:	5f00                	lw	s0,56(a4)
    1b98:	665f 6c61 746c      	0x746c6c61665f
    1b9e:	7268                	flw	fa0,100(a2)
    1ba0:	6867756f          	jal	a0,79226 <_erodata+0x790e6>
    1ba4:	5f20                	lw	s0,120(a4)
    1ba6:	615f 7474 6972      	0x69727474615f
    1bac:	7562                	flw	fa0,56(sp)
    1bae:	6574                	flw	fa3,76(a0)
    1bb0:	5f5f 2828 5f5f      	0x5f5f28285f5f
    1bb6:	6166                	flw	ft2,88(sp)
    1bb8:	6c6c                	flw	fa1,92(s0)
    1bba:	6874                	flw	fa3,84(s0)
    1bbc:	6f72                	flw	ft10,28(sp)
    1bbe:	6775                	lui	a4,0x1d
    1bc0:	5f68                	lw	a0,124(a4)
    1bc2:	295f 0029 4e49      	0x4e490029295f
    1bc8:	5f54                	lw	a3,60(a4)
    1bca:	454c                	lw	a1,12(a0)
    1bcc:	5341                	li	t1,-16
    1bce:	3354                	fld	fa3,160(a4)
    1bd0:	5f32                	lw	t5,44(sp)
    1bd2:	414d                	li	sp,19
    1bd4:	2058                	fld	fa4,128(s0)
    1bd6:	5f28                	lw	a0,120(a4)
    1bd8:	495f 544e 4c5f      	0x4c5f544e495f
    1bde:	4145                	li	sp,17
    1be0:	32335453          	0x32335453
    1be4:	4d5f 5841 5f5f      	0x5f5f58414d5f
    1bea:	0029                	c.nop	10
    1bec:	5f5f 6177 6e72      	0x6e7261775f5f
    1bf2:	755f 756e 6573      	0x6573756e755f
    1bf8:	5f64                	lw	s1,124(a4)
    1bfa:	6572                	flw	fa0,28(sp)
    1bfc:	746c7573          	csrrci	a0,0x746,24
    1c00:	5f20                	lw	s0,120(a4)
    1c02:	615f 7474 6972      	0x69727474615f
    1c08:	7562                	flw	fa0,56(sp)
    1c0a:	6574                	flw	fa3,76(a0)
    1c0c:	5f5f 2828 5f5f      	0x5f5f28285f5f
    1c12:	6e726177          	0x6e726177
    1c16:	755f 756e 6573      	0x6573756e755f
    1c1c:	5f64                	lw	s1,124(a4)
    1c1e:	6572                	flw	fa0,28(sp)
    1c20:	746c7573          	csrrci	a0,0x746,24
    1c24:	5f5f 2929 5f00      	0x5f0029295f5f
    1c2a:	465f 544c 3436      	0x3436544c465f
    1c30:	5f58                	lw	a4,60(a4)
    1c32:	494d                	li	s2,19
    1c34:	5f4e                	lw	t5,240(sp)
    1c36:	3031                	jal	1442 <_erodata+0x1302>
    1c38:	455f 5058 5f5f      	0x5f5f5058455f
    1c3e:	2820                	fld	fs0,80(s0)
    1c40:	342d                	jal	166a <_erodata+0x152a>
    1c42:	3339                	jal	1950 <_erodata+0x1810>
    1c44:	2931                	jal	2060 <_erodata+0x1f20>
    1c46:	5f00                	lw	s0,56(a4)
    1c48:	555f 4e49 5f54      	0x5f544e49555f
    1c4e:	4146                	lw	sp,80(sp)
    1c50:	5f385453          	0x5f385453
    1c54:	414d                	li	sp,19
    1c56:	5f58                	lw	a4,60(a4)
    1c58:	205f 7830 6666      	0x66667830205f
    1c5e:	6666                	flw	fa2,88(sp)
    1c60:	6666                	flw	fa2,88(sp)
    1c62:	6666                	flw	fa2,88(sp)
    1c64:	0055                	c.nop	21
    1c66:	5f5f 5342 5f44      	0x5f4453425f5f
    1c6c:	4956                	lw	s2,84(sp)
    1c6e:	4c424953          	0x4c424953
    1c72:	2045                	jal	1d12 <_erodata+0x1bd2>
    1c74:	0031                	c.nop	12
    1c76:	4e49                	li	t3,18
    1c78:	3154                	fld	fa3,160(a0)
    1c7a:	5f36                	lw	t5,108(sp)
    1c7c:	414d                	li	sp,19
    1c7e:	2058                	fld	fa4,128(s0)
    1c80:	5f28                	lw	a0,120(a4)
    1c82:	495f 544e 3631      	0x3631544e495f
    1c88:	4d5f 5841 5f5f      	0x5f5f58414d5f
    1c8e:	0029                	c.nop	10
    1c90:	5f5f 4c46 3154      	0x31544c465f5f
    1c96:	3832                	fld	fa6,296(sp)
    1c98:	4d5f 5841 315f      	0x315f58414d5f
    1c9e:	5f30                	lw	a2,120(a4)
    1ca0:	5845                	li	a6,-15
    1ca2:	5f50                	lw	a2,60(a4)
    1ca4:	205f 3934 3233      	0x32333934205f
    1caa:	5f00                	lw	s0,56(a4)
    1cac:	645f 7369 6261      	0x62617369645f
    1cb2:	656c                	flw	fa1,76(a0)
    1cb4:	735f 6e61 7469      	0x74696e61735f
    1cba:	7a69                	lui	s4,0xffffa
    1cbc:	7265                	lui	tp,0xffff9
    1cbe:	5f20                	lw	s0,120(a4)
    1cc0:	6e5f 5f6f 6173      	0x61735f6f6e5f
    1cc6:	696e                	flw	fs2,216(sp)
    1cc8:	6974                	flw	fa3,84(a0)
    1cca:	657a                	flw	fa0,156(sp)
    1ccc:	615f 6464 6572      	0x65726464615f
    1cd2:	5f207373          	csrrci	t1,0x5f2,0
    1cd6:	6e5f 5f6f 6173      	0x61735f6f6e5f
    1cdc:	696e                	flw	fs2,216(sp)
    1cde:	6974                	flw	fa3,84(a0)
    1ce0:	657a                	flw	fa0,156(sp)
    1ce2:	755f 646e 6665      	0x6665646e755f
    1ce8:	6e69                	lui	t3,0x1a
    1cea:	6465                	lui	s0,0x19
    1cec:	5f20                	lw	s0,120(a4)
    1cee:	645f 7369 6261      	0x62617369645f
    1cf4:	656c                	flw	fa1,76(a0)
    1cf6:	735f 6e61 7469      	0x74696e61735f
    1cfc:	7a69                	lui	s4,0xffffa
    1cfe:	7265                	lui	tp,0xffff9
    1d00:	695f 736e 7274      	0x7274736e695f
    1d06:	6d75                	lui	s10,0x1d
    1d08:	6e65                	lui	t3,0x19
    1d0a:	6174                	flw	fa3,68(a0)
    1d0c:	6974                	flw	fa3,84(a0)
    1d0e:	5f206e6f          	jal	t3,8300 <_erodata+0x81c0>
    1d12:	6e5f 5f6f 6173      	0x61735f6f6e5f
    1d18:	696e                	flw	fs2,216(sp)
    1d1a:	6974                	flw	fa3,84(a0)
    1d1c:	657a                	flw	fa0,156(sp)
    1d1e:	2228                	fld	fa0,64(a2)
    1d20:	6e75                	lui	t3,0x1d
    1d22:	6564                	flw	fs1,76(a0)
    1d24:	6966                	flw	fs2,88(sp)
    1d26:	656e                	flw	fa0,216(sp)
    1d28:	2264                	fld	fs1,192(a2)
    1d2a:	0029                	c.nop	10
    1d2c:	5f5f 6f6e 6e6e      	0x6e6e6f6e5f5f
    1d32:	6c75                	lui	s8,0x1d
    1d34:	286c                	fld	fa1,208(s0)
    1d36:	6170                	flw	fa2,68(a0)
    1d38:	6172                	flw	ft2,28(sp)
    1d3a:	736d                	lui	t1,0xffffb
    1d3c:	2029                	jal	1d46 <_erodata+0x1c06>
    1d3e:	5f5f 7461 7274      	0x727474615f5f
    1d44:	6269                	lui	tp,0x1a
    1d46:	7475                	lui	s0,0xffffd
    1d48:	5f65                	li	t5,-7
    1d4a:	285f 5f28 6e5f      	0x6e5f5f28285f
    1d50:	756e6e6f          	jal	t3,e84a6 <_erodata+0xe8366>
    1d54:	6c6c                	flw	fa1,92(s0)
    1d56:	5f5f 7020 7261      	0x726170205f5f
    1d5c:	6d61                	lui	s10,0x18
    1d5e:	00292973          	csrrs	s2,frm,s2
    1d62:	5f5f 6f6e 6572      	0x65726f6e5f5f
    1d68:	7574                	flw	fa3,108(a0)
    1d6a:	6e72                	flw	ft8,28(sp)
    1d6c:	5f20                	lw	s0,120(a4)
    1d6e:	615f 7474 6972      	0x69727474615f
    1d74:	7562                	flw	fa0,56(sp)
    1d76:	6574                	flw	fa3,76(a0)
    1d78:	5f5f 2828 5f5f      	0x5f5f28285f5f
    1d7e:	6f6e                	flw	ft10,216(sp)
    1d80:	6572                	flw	fa0,28(sp)
    1d82:	7574                	flw	fa3,108(a0)
    1d84:	6e72                	flw	ft8,28(sp)
    1d86:	5f5f 2929 5f00      	0x5f0029295f5f
    1d8c:	465f 544c 3436      	0x3436544c465f
    1d92:	4d5f 4e49 315f      	0x315f4e494d5f
    1d98:	5f30                	lw	a2,120(a4)
    1d9a:	5845                	li	a6,-15
    1d9c:	5f50                	lw	a2,60(a4)
    1d9e:	205f 2d28 3033      	0x30332d28205f
    1da4:	5f002937          	lui	s2,0x5f002
    1da8:	445f 4c42 4d5f      	0x4d5f4c42445f
    1dae:	5841                	li	a6,-16
    1db0:	5f5f 2820 6428      	0x642828205f5f
    1db6:	6c62756f          	jal	a0,2947c <_erodata+0x2933c>
    1dba:	2965                	jal	2272 <_erodata+0x2132>
    1dbc:	2e31                	jal	20d8 <_erodata+0x1f98>
    1dbe:	36373937          	lui	s2,0x36373
    1dc2:	3339                	jal	1ad0 <_erodata+0x1990>
    1dc4:	3331                	jal	1ad0 <_erodata+0x1990>
    1dc6:	3834                	fld	fa3,112(s0)
    1dc8:	3236                	fld	ft4,360(sp)
    1dca:	37353133          	0x37353133
    1dce:	3830                	fld	fa2,112(s0)
    1dd0:	3431                	jal	17dc <_erodata+0x169c>
    1dd2:	3235                	jal	16fe <_erodata+0x15be>
    1dd4:	33323437          	lui	s0,0x33323
    1dd8:	37313337          	lui	t1,0x37313
    1ddc:	3430                	fld	fa2,104(s0)
    1dde:	65373533          	0x65373533
    1de2:	3830332b          	0x3830332b
    1de6:	294c                	fld	fa1,144(a0)
    1de8:	5f00                	lw	s0,56(a4)
    1dea:	4544                	lw	s1,12(a0)
    1dec:	4146                	lw	sp,80(sp)
    1dee:	4c55                	li	s8,21
    1df0:	5f54                	lw	a3,60(a4)
    1df2:	52554f53          	0x52554f53
    1df6:	31204543          	fmadd.s	fa0,ft0,fs2,ft6,rmm
    1dfa:	5f00                	lw	s0,56(a4)
    1dfc:	5f5f 6e69 3374      	0x33746e695f5f
    1e02:	5f32                	lw	t5,44(sp)
    1e04:	5f74                	lw	a3,124(a4)
    1e06:	6564                	flw	fs1,76(a0)
    1e08:	6966                	flw	fs2,88(sp)
    1e0a:	656e                	flw	fa0,216(sp)
    1e0c:	2064                	fld	fs1,192(s0)
    1e0e:	0031                	c.nop	12
    1e10:	5f5f 4e49 5f54      	0x5f544e495f5f
    1e16:	4146                	lw	sp,80(sp)
    1e18:	36315453          	0x36315453
    1e1c:	545f 5059 5f45      	0x5f455059545f
    1e22:	205f 6e69 0074      	0x746e69205f
    1e28:	5f5f 4e49 3854      	0x38544e495f5f
    1e2e:	2220                	fld	fs0,64(a2)
    1e30:	6868                	flw	fa0,84(s0)
    1e32:	0022                	c.slli	zero,0x8
    1e34:	5f5f 4e47 5f55      	0x5f554e475f5f
    1e3a:	4956                	lw	s2,84(sp)
    1e3c:	4c424953          	0x4c424953
    1e40:	2045                	jal	1ee0 <_erodata+0x1da0>
    1e42:	0030                	addi	a2,sp,8
    1e44:	5f5f 4c46 3354      	0x33544c465f5f
    1e4a:	5f32                	lw	t5,44(sp)
    1e4c:	4544                	lw	s1,12(a0)
    1e4e:	414d4943          	fmadd.s	fs2,fs10,fs4,fs0,rmm
    1e52:	5f4c                	lw	a1,60(a4)
    1e54:	4944                	lw	s1,20(a0)
    1e56:	205f5f47          	fmsub.s	ft10,ft10,ft5,ft4,unknown
    1e5a:	0039                	c.nop	14
    1e5c:	5f5f 4c46 3154      	0x31544c465f5f
    1e62:	3832                	fld	fa6,296(sp)
    1e64:	445f 4749 5f5f      	0x5f5f4749445f
    1e6a:	3320                	fld	fs0,96(a4)
    1e6c:	5f5f0033          	0x5f5f0033
    1e70:	4955                	li	s2,21
    1e72:	544e                	lw	s0,240(sp)
    1e74:	3631                	jal	1980 <_erodata+0x1840>
    1e76:	545f 5059 5f45      	0x5f455059545f
    1e7c:	205f 6873 726f      	0x726f6873205f
    1e82:	2074                	fld	fa3,192(s0)
    1e84:	6e75                	lui	t3,0x1d
    1e86:	6e676973          	csrrsi	s2,0x6e6,14
    1e8a:	6465                	lui	s0,0x19
    1e8c:	6920                	flw	fs0,80(a0)
    1e8e:	746e                	flw	fs0,248(sp)
    1e90:	5f00                	lw	s0,56(a4)
    1e92:	4c5f 4244 5f4c      	0x5f4c42444c5f
    1e98:	414d                	li	sp,19
    1e9a:	5f58                	lw	a4,60(a4)
    1e9c:	205f 2e31 3831      	0x38312e31205f
    1ea2:	3739                	jal	1db0 <_erodata+0x1c70>
    1ea4:	39343133          	0x39343133
    1ea8:	3335                	jal	1bd4 <_erodata+0x1a94>
    1eaa:	3735                	jal	1dd6 <_erodata+0x1c96>
    1eac:	3332                	fld	ft6,296(sp)
    1eae:	3731                	jal	1dba <_erodata+0x1c7a>
    1eb0:	3536                	fld	fa0,360(sp)
    1eb2:	3830                	fld	fa2,112(s0)
    1eb4:	3735                	jal	1de0 <_erodata+0x1ca0>
    1eb6:	3935                	jal	1af2 <_erodata+0x19b2>
    1eb8:	36363233          	0x36363233
    1ebc:	3832                	fld	fa6,296(sp)
    1ebe:	3030                	fld	fa2,96(s0)
    1ec0:	65323037          	lui	zero,0x65323
    1ec4:	3339342b          	0x3339342b
    1ec8:	4c32                	lw	s8,12(sp)
    1eca:	4300                	lw	s0,0(a4)
    1ecc:	4d5f5253          	0x4d5f5253
    1ed0:	54415453          	0x54415453
    1ed4:	5355                	li	t1,-11
    1ed6:	4d5f 4549 3020      	0x302045494d5f
    1edc:	3878                	fld	fa4,240(s0)
    1ede:	5f00                	lw	s0,56(a4)
    1ee0:	575f 4843 5241      	0x52414843575f
    1ee6:	575f 4449 4854      	0x48544449575f
    1eec:	5f5f 3320 0032      	0x3233205f5f
    1ef2:	5f5f 4e47 4355      	0x43554e475f5f
    1ef8:	535f 4454 5f43      	0x5f434454535f
    1efe:	4e49                	li	t3,18
    1f00:	494c                	lw	a1,20(a0)
    1f02:	454e                	lw	a0,208(sp)
    1f04:	5f5f 3120 5f00      	0x5f0031205f5f
    1f0a:	765f 7865 6972      	0x69727865765f
    1f10:	5f766373          	csrrsi	t1,0x5f7,12
    1f14:	205f 0031 495f      	0x495f0031205f
    1f1a:	544e                	lw	s0,240(sp)
    1f1c:	3631                	jal	1a28 <_erodata+0x18e8>
    1f1e:	545f 445f 4345      	0x4345445f545f
    1f24:	414c                	lw	a1,4(a0)
    1f26:	4552                	lw	a0,20(sp)
    1f28:	2044                	fld	fs1,128(s0)
    1f2a:	4900                	lw	s0,16(a0)
    1f2c:	544e                	lw	s0,240(sp)
    1f2e:	4c5f 4145 5453      	0x545341454c5f
    1f34:	3631                	jal	1a40 <_erodata+0x1900>
    1f36:	4d5f 4e49 2820      	0x28204e494d5f
    1f3c:	5f2d                	li	t5,-21
    1f3e:	495f 544e 4c5f      	0x4c5f544e495f
    1f44:	4145                	li	sp,17
    1f46:	36315453          	0x36315453
    1f4a:	4d5f 5841 5f5f      	0x5f5f58414d5f
    1f50:	2d20                	fld	fs0,88(a0)
    1f52:	3120                	fld	fs0,96(a0)
    1f54:	0029                	c.nop	10
    1f56:	5f5f 4f4c 474e      	0x474e4f4c5f5f
    1f5c:	4c5f 4e4f 5f47      	0x5f474e4f4c5f
    1f62:	414d                	li	sp,19
    1f64:	5f58                	lw	a4,60(a4)
    1f66:	205f 7830 6637      	0x66377830205f
    1f6c:	6666                	flw	fa2,88(sp)
    1f6e:	6666                	flw	fa2,88(sp)
    1f70:	6666                	flw	fa2,88(sp)
    1f72:	6666                	flw	fa2,88(sp)
    1f74:	6666                	flw	fa2,88(sp)
    1f76:	6666                	flw	fa2,88(sp)
    1f78:	6666                	flw	fa2,88(sp)
    1f7a:	4c4c                	lw	a1,28(s0)
    1f7c:	5f00                	lw	s0,56(a4)
    1f7e:	465f 5341 3654      	0x36545341465f
    1f84:	2034                	fld	fa3,64(s0)
    1f86:	6c22                	flw	fs8,8(sp)
    1f88:	226c                	fld	fa1,192(a2)
    1f8a:	5f00                	lw	s0,56(a4)
    1f8c:	555f 4e49 5f54      	0x5f544e49555f
    1f92:	454c                	lw	a1,12(a0)
    1f94:	5341                	li	t1,-16
    1f96:	3154                	fld	fa3,160(a0)
    1f98:	5f36                	lw	t5,108(sp)
    1f9a:	5954                	lw	a3,52(a0)
    1f9c:	4550                	lw	a2,12(a0)
    1f9e:	5f5f 7320 6f68      	0x6f6873205f5f
    1fa4:	7472                	flw	fs0,60(sp)
    1fa6:	7520                	flw	fs0,104(a0)
    1fa8:	736e                	flw	ft6,248(sp)
    1faa:	6769                	lui	a4,0x1a
    1fac:	656e                	flw	fa0,216(sp)
    1fae:	2064                	fld	fs1,192(s0)
    1fb0:	6e69                	lui	t3,0x1a
    1fb2:	0074                	addi	a3,sp,12
    1fb4:	5f5f 4c46 5f54      	0x5f544c465f5f
    1fba:	414d                	li	sp,19
    1fbc:	5f58                	lw	a4,60(a4)
    1fbe:	3031                	jal	17ca <_erodata+0x168a>
    1fc0:	455f 5058 5f5f      	0x5f5f5058455f
    1fc6:	3320                	fld	fs0,96(a4)
    1fc8:	0038                	addi	a4,sp,8
    1fca:	5f5f 444c 4c42      	0x4c42444c5f5f
    1fd0:	455f 5350 4c49      	0x4c495350455f
    1fd6:	5f5f4e4f          	fnmadd.q	ft8,ft10,fs5,fa1,rmm
    1fda:	3120                	fld	fs0,96(a0)
    1fdc:	392e                	fld	fs2,232(sp)
    1fde:	3532                	fld	fa0,296(sp)
    1fe0:	3239                	jal	18ee <_erodata+0x17ae>
    1fe2:	3939                	jal	1c00 <_erodata+0x1ac0>
    1fe4:	3434                	fld	fa3,104(s0)
    1fe6:	32373833          	0x32373833
    1fea:	35383533          	0x35383533
    1fee:	35353033          	0x35353033
    1ff2:	3739                	jal	1f00 <_erodata+0x1dc0>
    1ff4:	32343937          	lui	s2,0x32343
    1ff8:	3835                	jal	1834 <_erodata+0x16f4>
    1ffa:	3934                	fld	fa3,112(a0)
    1ffc:	3732                	fld	fa4,296(sp)
    1ffe:	2d653233          	0x2d653233
    2002:	004c3433          	sltu	s0,s8,tp
    2006:	5f5f 6572 7473      	0x747365725f5f
    200c:	6972                	flw	fs2,28(sp)
    200e:	72207463          	bgeu	zero,sp,2736 <_erodata+0x25f6>
    2012:	7365                	lui	t1,0xffff9
    2014:	7274                	flw	fa3,100(a2)
    2016:	6369                	lui	t1,0x1a
    2018:	0074                	addi	a3,sp,12
    201a:	5f5f 4c46 3354      	0x33544c465f5f
    2020:	5832                	lw	a6,44(sp)
    2022:	455f 5350 4c49      	0x4c495350455f
    2028:	5f5f4e4f          	fnmadd.q	ft8,ft10,fs5,fa1,rmm
    202c:	3220                	fld	fs0,96(a2)
    202e:	322e                	fld	ft4,232(sp)
    2030:	3032                	fld	ft0,296(sp)
    2032:	3434                	fld	fa3,104(s0)
    2034:	3036                	fld	ft0,360(sp)
    2036:	3934                	fld	fa3,112(a0)
    2038:	3532                	fld	fa0,296(sp)
    203a:	3330                	fld	fa2,96(a4)
    203c:	3331                	jal	1d48 <_erodata+0x1c08>
    203e:	3830                	fld	fa2,112(s0)
    2040:	3830                	fld	fa2,112(s0)
    2042:	3734                	fld	fa3,104(a4)
    2044:	3632                	fld	fa2,296(sp)
    2046:	36333333          	0x36333333
    204a:	3831                	jal	1866 <_erodata+0x1726>
    204c:	3631                	jal	1b58 <_erodata+0x1a18>
    204e:	3034                	fld	fa3,96(s0)
    2050:	3236                	fld	ft4,360(sp)
    2052:	2d65                	jal	270a <_erodata+0x25ca>
    2054:	3631                	jal	1b60 <_erodata+0x1a20>
    2056:	3346                	fld	ft6,112(sp)
    2058:	7832                	flw	fa6,44(sp)
    205a:	5f00                	lw	s0,56(a4)
    205c:	4c5f 5241 4547      	0x454752414c5f
    2062:	4946                	lw	s2,80(sp)
    2064:	454c                	lw	a1,12(a0)
    2066:	3436                	fld	fs0,360(sp)
    2068:	565f 5349 4249      	0x42495349565f
    206e:	454c                	lw	a1,12(a0)
    2070:	3020                	fld	fs0,96(s0)
    2072:	5f00                	lw	s0,56(a4)
    2074:	625f 6975 746c      	0x746c6975625f
    207a:	6e69                	lui	t3,0x1a
    207c:	615f 696c 6e67      	0x6e67696c615f
    2082:	755f 2870 2c78      	0x2c782870755f
    2088:	6c61                	lui	s8,0x18
    208a:	6769                	lui	a4,0x1a
    208c:	296e                	fld	fs2,216(sp)
    208e:	2820                	fld	fs0,80(s0)
    2090:	5f28                	lw	a0,120(a4)
    2092:	745f 7079 6f65      	0x6f657079745f
    2098:	5f66                	lw	t5,120(sp)
    209a:	285f 2978 2829      	0x28292978285f
    20a0:	2828                	fld	fa0,80(s0)
    20a2:	5f5f 6975 746e      	0x746e69755f5f
    20a8:	7470                	flw	fa2,108(s0)
    20aa:	5f72                	lw	t5,60(sp)
    20ac:	2974                	fld	fa3,208(a0)
    20ae:	7828                	flw	fa0,112(s0)
    20b0:	2b29                	jal	25ca <_erodata+0x248a>
    20b2:	2828                	fld	fa0,80(s0)
    20b4:	6c61                	lui	s8,0x18
    20b6:	6769                	lui	a4,0x1a
    20b8:	296e                	fld	fs2,216(sp)
    20ba:	312d                	jal	1ce4 <_erodata+0x1ba4>
    20bc:	2929                	jal	24d6 <_erodata+0x2396>
    20be:	2826                	fld	fa6,72(sp)
    20c0:	287e                	fld	fa6,472(sp)
    20c2:	6128                	flw	fa0,64(a0)
    20c4:	696c                	flw	fa1,84(a0)
    20c6:	2d296e67          	0x2d296e67
    20ca:	2931                	jal	24e6 <_erodata+0x23a6>
    20cc:	2929                	jal	24e6 <_erodata+0x23a6>
    20ce:	0029                	c.nop	10
    20d0:	5f5f 6f6e 6874      	0x68746f6e5f5f
    20d6:	6f72                	flw	ft10,28(sp)
    20d8:	5f5f2077          	0x5f5f2077
    20dc:	7461                	lui	s0,0xffff8
    20de:	7274                	flw	fa3,100(a2)
    20e0:	6269                	lui	tp,0x1a
    20e2:	7475                	lui	s0,0xffffd
    20e4:	5f65                	li	t5,-7
    20e6:	285f 5f28 6e5f      	0x6e5f5f28285f
    20ec:	7268746f          	jal	s0,89812 <_erodata+0x896d2>
    20f0:	5f5f776f          	jal	a4,f9ee4 <_erodata+0xf9da4>
    20f4:	2929                	jal	250e <_erodata+0x23ce>
    20f6:	5f00                	lw	s0,56(a4)
    20f8:	725f 7369 7663      	0x76637369725f
    20fe:	785f 656c 206e      	0x206e656c785f
    2104:	43003233          	0x43003233
    2108:	49464e4f          	fnmadd.s	ft8,fa2,fs4,fs1,rmm
    210c:	53435f47          	fmsub.d	ft10,ft6,fs4,fa0,unknown
    2110:	5f52                	lw	t5,52(sp)
    2112:	4144                	lw	s1,4(a0)
    2114:	4154                	lw	a3,4(a0)
    2116:	575f 4449 4854      	0x48544449575f
    211c:	3320                	fld	fs0,96(a4)
    211e:	0032                	c.slli	zero,0xc
    2120:	5f5f 4c46 5f54      	0x5f544c465f5f
    2126:	414d                	li	sp,19
    2128:	544e                	lw	s0,240(sp)
    212a:	445f 4749 5f5f      	0x5f5f4749445f
    2130:	3220                	fld	fs0,96(a2)
    2132:	0034                	addi	a3,sp,8
    2134:	5f5f 4e49 3654      	0x36544e495f5f
    213a:	2034                	fld	fa3,64(s0)
    213c:	6c22                	flw	fs8,8(sp)
    213e:	226c                	fld	fa1,192(a2)
    2140:	5f00                	lw	s0,56(a4)
    2142:	465f 544c 3436      	0x3436544c465f
    2148:	445f 4345 4d49      	0x4d494345445f
    214e:	4c41                	li	s8,16
    2150:	445f 4749 5f5f      	0x5f5f4749445f
    2156:	3120                	fld	fs0,96(a0)
    2158:	5f5f0037          	lui	zero,0x5f5f0
    215c:	6f6c                	flw	fa1,92(a4)
    215e:	676e                	flw	fa4,216(sp)
    2160:	645f 756f 6c62      	0x6c62756f645f
    2166:	5f65                	li	t5,-7
    2168:	2074                	fld	fa3,192(s0)
    216a:	6f6c                	flw	fa1,92(a4)
    216c:	676e                	flw	fa4,216(sp)
    216e:	6420                	flw	fs0,72(s0)
    2170:	6c62756f          	jal	a0,29836 <_erodata+0x296f6>
    2174:	0065                	c.nop	25
    2176:	5f5f 4552 4947      	0x494745525f5f
    217c:	52455453          	0x52455453
    2180:	505f 4552 4946      	0x49464552505f
    2186:	5f58                	lw	a4,60(a4)
    2188:	205f 4800 5641      	0x56414800205f
    218e:	5f45                	li	t5,-15
    2190:	4e49                	li	t3,18
    2192:	5449                	li	s0,-14
    2194:	465f 4e49 2049      	0x20494e49465f
    219a:	0031                	c.nop	12
    219c:	5f5f 4c46 3654      	0x36544c465f5f
    21a2:	5834                	lw	a3,112(s0)
    21a4:	4e5f 524f 5f4d      	0x5f4d524f4e5f
    21aa:	414d                	li	sp,19
    21ac:	5f58                	lw	a4,60(a4)
    21ae:	205f 2e31 3831      	0x38312e31205f
    21b4:	3739                	jal	20c2 <_erodata+0x1f82>
    21b6:	39343133          	0x39343133
    21ba:	3335                	jal	1ee6 <_erodata+0x1da6>
    21bc:	3735                	jal	20e8 <_erodata+0x1fa8>
    21be:	3332                	fld	ft6,296(sp)
    21c0:	3731                	jal	20cc <_erodata+0x1f8c>
    21c2:	3536                	fld	fa0,360(sp)
    21c4:	3830                	fld	fa2,112(s0)
    21c6:	3735                	jal	20f2 <_erodata+0x1fb2>
    21c8:	3935                	jal	1e04 <_erodata+0x1cc4>
    21ca:	36363233          	0x36363233
    21ce:	3832                	fld	fa6,296(sp)
    21d0:	3030                	fld	fa2,96(s0)
    21d2:	65323037          	lui	zero,0x65323
    21d6:	3339342b          	0x3339342b
    21da:	4632                	lw	a2,12(sp)
    21dc:	3436                	fld	fs0,360(sp)
    21de:	0078                	addi	a4,sp,12
    21e0:	5f5f 4955 544e      	0x544e49555f5f
    21e6:	465f 5341 3154      	0x31545341465f
    21ec:	5f36                	lw	t5,108(sp)
    21ee:	414d                	li	sp,19
    21f0:	5f58                	lw	a4,60(a4)
    21f2:	205f 7830 6666      	0x66667830205f
    21f8:	6666                	flw	fa2,88(sp)
    21fa:	6666                	flw	fa2,88(sp)
    21fc:	6666                	flw	fa2,88(sp)
    21fe:	0055                	c.nop	21
    2200:	5f5f 4955 544e      	0x544e49555f5f
    2206:	465f 5341 3154      	0x31545341465f
    220c:	5f36                	lw	t5,108(sp)
    220e:	5954                	lw	a3,52(a0)
    2210:	4550                	lw	a2,12(a0)
    2212:	5f5f 7520 736e      	0x736e75205f5f
    2218:	6769                	lui	a4,0x1a
    221a:	656e                	flw	fa0,216(sp)
    221c:	2064                	fld	fs1,192(s0)
    221e:	6e69                	lui	t3,0x1a
    2220:	0074                	addi	a3,sp,12
    2222:	5f5f 4c46 5f54      	0x5f544c465f5f
    2228:	414d                	li	sp,19
    222a:	5f58                	lw	a4,60(a4)
    222c:	205f 2e33 3034      	0x30342e33205f
    2232:	3832                	fld	fa6,296(sp)
    2234:	3332                	fld	ft6,296(sp)
    2236:	3634                	fld	fa3,104(a2)
    2238:	3336                	fld	ft6,360(sp)
    223a:	3538                	fld	fa4,104(a0)
    223c:	3832                	fld	fa6,296(sp)
    223e:	3538                	fld	fa4,104(a0)
    2240:	3839                	jal	1a5e <_erodata+0x191e>
    2242:	3131                	jal	1e4e <_erodata+0x1d0e>
    2244:	31343037          	lui	zero,0x31343
    2248:	3338                	fld	fa4,96(a4)
    224a:	3834                	fld	fa3,112(s0)
    224c:	3534                	fld	fa3,104(a0)
    224e:	3631                	jal	1d5a <_erodata+0x1c1a>
    2250:	3239                	jal	1b5e <_erodata+0x1a1e>
    2252:	6535                	lui	a0,0xd
    2254:	4638332b          	0x4638332b
    2258:	4300                	lw	s0,0(a4)
    225a:	49464e4f          	fnmadd.s	ft8,fa2,fs4,fs1,rmm
    225e:	50435f47          	fmsub.s	ft10,ft6,ft4,fa0,unknown
    2262:	5f55                	li	t5,-11
    2264:	4148                	lw	a0,4(a0)
    2266:	4e495f53          	0x4e495f53
    226a:	4554                	lw	a3,12(a0)
    226c:	5252                	lw	tp,52(sp)
    226e:	5055                	c.li	zero,-11
    2270:	2054                	fld	fa3,128(s0)
    2272:	5f00                	lw	s0,56(a4)
    2274:	445f 4c42 4d5f      	0x4d5f4c42445f
    227a:	4e49                	li	t3,18
    227c:	315f 5f30 5845      	0x58455f30315f
    2282:	5f50                	lw	a2,60(a4)
    2284:	205f 2d28 3033      	0x30332d28205f
    228a:	5f002937          	lui	s2,0x5f002
    228e:	465f 544c 3233      	0x3233544c465f
    2294:	4d5f 4e49 455f      	0x455f4e494d5f
    229a:	5058                	lw	a4,36(s0)
    229c:	5f5f 2820 312d      	0x312d28205f5f
    22a2:	3532                	fld	fa0,296(sp)
    22a4:	0029                	c.nop	10
    22a6:	5f5f 5847 5f58      	0x5f5858475f5f
    22ac:	4241                	li	tp,16
    22ae:	5f49                	li	t5,-14
    22b0:	4556                	lw	a0,84(sp)
    22b2:	5352                	lw	t1,52(sp)
    22b4:	4f49                	li	t5,18
    22b6:	204e                	fld	ft0,208(sp)
    22b8:	3031                	jal	1ac4 <_erodata+0x1984>
    22ba:	3431                	jal	1cc6 <_erodata+0x1b86>
    22bc:	5f00                	lw	s0,56(a4)
    22be:	465f 544c 3231      	0x3231544c465f
    22c4:	5f38                	lw	a4,120(a4)
    22c6:	4148                	lw	a0,4(a0)
    22c8:	4e495f53          	0x4e495f53
    22cc:	4946                	lw	s2,80(sp)
    22ce:	494e                	lw	s2,208(sp)
    22d0:	5954                	lw	a3,52(a0)
    22d2:	5f5f 3120 5f00      	0x5f0031205f5f
    22d8:	465f 544c 3233      	0x3233544c465f
    22de:	445f 4749 5f5f      	0x5f5f4749445f
    22e4:	3620                	fld	fs0,104(a2)
    22e6:	4300                	lw	s0,0(a4)
    22e8:	555f5253          	0x555f5253
    22ec:	5241                	li	tp,-16
    22ee:	5f54                	lw	a3,60(a4)
    22f0:	5645                	li	a2,-15
    22f2:	505f 4e45 4944      	0x49444e45505f
    22f8:	474e                	lw	a4,208(sp)
    22fa:	535f 5a49 2045      	0x20455a49535f
    2300:	0031                	c.nop	12
    2302:	5f5f 4c46 3654      	0x36544c465f5f
    2308:	5f34                	lw	a3,120(a4)
    230a:	4148                	lw	a0,4(a0)
    230c:	45445f53          	0x45445f53
    2310:	4f4e                	lw	t5,208(sp)
    2312:	4d52                	lw	s10,20(sp)
    2314:	5f5f 3120 5f00      	0x5f0031205f5f
    231a:	5f5f 6e69 5f74      	0x5f746e695f5f
    2320:	656c                	flw	fa1,76(a0)
    2322:	7361                	lui	t1,0xffff8
    2324:	3674                	fld	fa3,232(a2)
    2326:	5f34                	lw	a3,120(a4)
    2328:	5f74                	lw	a3,124(a4)
    232a:	6564                	flw	fs1,76(a0)
    232c:	6966                	flw	fs2,88(sp)
    232e:	656e                	flw	fa0,216(sp)
    2330:	2064                	fld	fs1,192(s0)
    2332:	0031                	c.nop	12
    2334:	5f5f 4c46 5f54      	0x5f544c465f5f
    233a:	5645                	li	a2,-15
    233c:	4c41                	li	s8,16
    233e:	4d5f 5445 4f48      	0x4f4854454d5f
    2344:	5f44                	lw	s1,60(a4)
    2346:	205f 0030 5343      	0x53430030205f
    234c:	5f52                	lw	t5,52(sp)
    234e:	4155                	li	sp,21
    2350:	5452                	lw	s0,52(sp)
    2352:	455f 5f56 5453      	0x54535f56455f
    2358:	5441                	li	s0,-16
    235a:	5355                	li	t1,-11
    235c:	535f 5a49 2045      	0x20455a49535f
    2362:	0031                	c.nop	12
    2364:	5f525343          	fmadd.q	ft6,ft4,fs5,fa1,unknown
    2368:	4344                	lw	s1,4(a4)
    236a:	4341                	li	t1,16
    236c:	4548                	lw	a0,12(a0)
    236e:	495f 464e 204f      	0x204f464e495f
    2374:	7830                	flw	fa2,112(s0)
    2376:	00304343          	fmadd.s	ft6,ft0,ft3,ft0,rmm
    237a:	5f5f 4c46 3354      	0x33544c465f5f
    2380:	5832                	lw	a6,44(sp)
    2382:	485f 5341 445f      	0x445f5341485f
    2388:	4e45                	li	t3,17
    238a:	5f4d524f          	fnmadd.q	ft4,fs10,fs4,fa1,unknown
    238e:	205f 0031 4e49      	0x4e490031205f
    2394:	5f54                	lw	a3,60(a4)
    2396:	454c                	lw	a1,12(a0)
    2398:	5341                	li	t1,-16
    239a:	3354                	fld	fa3,160(a4)
    239c:	5f32                	lw	t5,44(sp)
    239e:	494d                	li	s2,19
    23a0:	204e                	fld	ft0,208(sp)
    23a2:	2d28                	fld	fa0,88(a0)
    23a4:	5f5f 4e49 5f54      	0x5f544e495f5f
    23aa:	454c                	lw	a1,12(a0)
    23ac:	5341                	li	t1,-16
    23ae:	3354                	fld	fa3,160(a4)
    23b0:	5f32                	lw	t5,44(sp)
    23b2:	414d                	li	sp,19
    23b4:	5f58                	lw	a4,60(a4)
    23b6:	205f 202d 2931      	0x2931202d205f
    23bc:	5f00                	lw	s0,56(a4)
    23be:	4e49                	li	t3,18
    23c0:	5054                	lw	a3,36(s0)
    23c2:	5254                	lw	a3,36(a2)
    23c4:	455f 5f51 4e49      	0x4e495f51455f
    23ca:	2054                	fld	fa3,128(s0)
    23cc:	5f00                	lw	s0,56(a4)
    23ce:	495f 544e 4c5f      	0x4c5f544e495f
    23d4:	4145                	li	sp,17
    23d6:	34365453          	0x34365453
    23da:	4d5f 5841 5f5f      	0x5f5f58414d5f
    23e0:	3020                	fld	fs0,96(s0)
    23e2:	3778                	fld	fa4,232(a4)
    23e4:	6666                	flw	fa2,88(sp)
    23e6:	6666                	flw	fa2,88(sp)
    23e8:	6666                	flw	fa2,88(sp)
    23ea:	6666                	flw	fa2,88(sp)
    23ec:	6666                	flw	fa2,88(sp)
    23ee:	6666                	flw	fa2,88(sp)
    23f0:	6666                	flw	fa2,88(sp)
    23f2:	4c66                	lw	s8,88(sp)
    23f4:	004c                	addi	a1,sp,4
    23f6:	5f5f 4347 5f43      	0x5f4343475f5f
    23fc:	5441                	li	s0,-16
    23fe:	43494d4f          	fnmadd.d	fs10,fs2,fs4,fs0,rmm
    2402:	575f 4843 5241      	0x52414843575f
    2408:	545f 4c5f 434f      	0x434f4c5f545f
    240e:	52465f4b          	fnmsub.d	ft10,fa2,ft4,fa0,unknown
    2412:	4545                	li	a0,17
    2414:	3120                	fld	fs0,96(a0)
    2416:	5f00                	lw	s0,56(a4)
    2418:	465f 544c 3231      	0x3231544c465f
    241e:	5f38                	lw	a4,120(a4)
    2420:	494d                	li	s2,19
    2422:	5f4e                	lw	t5,240(sp)
    2424:	205f 2e33 3633      	0x36332e33205f
    242a:	3132                	fld	ft2,296(sp)
    242c:	3330                	fld	fa2,96(a4)
    242e:	3431                	jal	1e3a <_erodata+0x1cfa>
    2430:	32313133          	0x32313133
    2434:	3930                	fld	fa2,112(a0)
    2436:	36303533          	0x36303533
    243a:	3632                	fld	fa2,296(sp)
    243c:	3632                	fld	fa2,296(sp)
    243e:	31383737          	lui	a4,0x31383
    2442:	31323337          	lui	t1,0x31323
    2446:	36323537          	lui	a0,0x36323
    244a:	6530                	flw	fa2,72(a0)
    244c:	342d                	jal	1e76 <_erodata+0x1d36>
    244e:	3339                	jal	215c <_erodata+0x201c>
    2450:	4632                	lw	a2,12(sp)
    2452:	3231                	jal	1d5e <_erodata+0x1c1e>
    2454:	0038                	addi	a4,sp,8
    2456:	5f5f 5653 4449      	0x444956535f5f
    245c:	565f 5349 4249      	0x42495349565f
    2462:	454c                	lw	a1,12(a0)
    2464:	3120                	fld	fs0,96(a0)
    2466:	5700                	lw	s0,40(a4)
    2468:	52414843          	fmadd.d	fa6,ft2,ft4,fa0,rmm
    246c:	4d5f 5841 2820      	0x282058414d5f
    2472:	5f5f 4357 4148      	0x414843575f5f
    2478:	5f52                	lw	t5,52(sp)
    247a:	414d                	li	sp,19
    247c:	5f58                	lw	a4,60(a4)
    247e:	295f 5f00 5f5f      	0x5f5f5f00295f
    2484:	6e69                	lui	t3,0x1a
    2486:	5f74                	lw	a3,124(a4)
    2488:	656c                	flw	fa1,76(a0)
    248a:	7361                	lui	t1,0xffff8
    248c:	3874                	fld	fa3,240(s0)
    248e:	745f 645f 6665      	0x6665645f745f
    2494:	6e69                	lui	t3,0x1a
    2496:	6465                	lui	s0,0x19
    2498:	3120                	fld	fs0,96(a0)
    249a:	5f00                	lw	s0,56(a4)
    249c:	495f 544e 4c5f      	0x4c5f544e495f
    24a2:	4145                	li	sp,17
    24a4:	5f385453          	0x5f385453
    24a8:	54444957          	0x54444957
    24ac:	5f48                	lw	a0,60(a4)
    24ae:	205f 0038 4e49      	0x4e490038205f
    24b4:	5f54                	lw	a3,60(a4)
    24b6:	454c                	lw	a1,12(a0)
    24b8:	5341                	li	t1,-16
    24ba:	3654                	fld	fa3,168(a2)
    24bc:	5f34                	lw	a3,120(a4)
    24be:	414d                	li	sp,19
    24c0:	2058                	fld	fa4,128(s0)
    24c2:	5f28                	lw	a0,120(a4)
    24c4:	495f 544e 4c5f      	0x4c5f544e495f
    24ca:	4145                	li	sp,17
    24cc:	34365453          	0x34365453
    24d0:	4d5f 5841 5f5f      	0x5f5f58414d5f
    24d6:	0029                	c.nop	10
    24d8:	5f5f 4955 544e      	0x544e49555f5f
    24de:	5f38                	lw	a4,120(a4)
    24e0:	414d                	li	sp,19
    24e2:	5f58                	lw	a4,60(a4)
    24e4:	205f 7830 6666      	0x66667830205f
    24ea:	5f00                	lw	s0,56(a4)
    24ec:	555f 4e49 3154      	0x31544e49555f
    24f2:	5f36                	lw	t5,108(sp)
    24f4:	414d                	li	sp,19
    24f6:	5f58                	lw	a4,60(a4)
    24f8:	205f 7830 6666      	0x66667830205f
    24fe:	6666                	flw	fa2,88(sp)
    2500:	5f00                	lw	s0,56(a4)
    2502:	6e5f 5f6f 6173      	0x61735f6f6e5f
    2508:	696e                	flw	fs2,216(sp)
    250a:	6974                	flw	fa3,84(a0)
    250c:	657a                	flw	fa0,156(sp)
    250e:	7328                	flw	fa0,96(a4)
    2510:	2029                	jal	251a <_erodata+0x23da>
    2512:	5f5f 7461 7274      	0x727474615f5f
    2518:	6269                	lui	tp,0x1a
    251a:	7475                	lui	s0,0xffffd
    251c:	5f65                	li	t5,-7
    251e:	285f 5f28 6e5f      	0x6e5f5f28285f
    2524:	61735f6f          	jal	t5,3833a <_erodata+0x381fa>
    2528:	696e                	flw	fs2,216(sp)
    252a:	6974                	flw	fa3,84(a0)
    252c:	657a                	flw	fa0,156(sp)
    252e:	5f5f 7328 2929      	0x292973285f5f
    2534:	0029                	c.nop	10
    2536:	4955                	li	s2,21
    2538:	544e                	lw	s0,240(sp)
    253a:	3436                	fld	fs0,360(sp)
    253c:	4d5f 5841 2820      	0x282058414d5f
    2542:	5f5f 4955 544e      	0x544e49555f5f
    2548:	3436                	fld	fs0,360(sp)
    254a:	4d5f 5841 5f5f      	0x5f5f58414d5f
    2550:	0029                	c.nop	10
    2552:	5f5f 4547 454e      	0x454e45475f5f
    2558:	4152                	lw	sp,20(sp)
    255a:	4554                	lw	a3,12(a0)
    255c:	5f44                	lw	s1,60(a4)
    255e:	5f434f53          	0x5f434f53
    2562:	2048                	fld	fa0,128(s0)
    2564:	5f00                	lw	s0,56(a4)
    2566:	565f 5245 4953      	0x49535245565f
    256c:	5f5f4e4f          	fnmadd.q	ft8,ft10,fs5,fa1,rmm
    2570:	2220                	fld	fs0,64(a2)
    2572:	3031                	jal	1d7e <_erodata+0x1c3e>
    2574:	322e                	fld	ft4,232(sp)
    2576:	302e                	fld	ft0,232(sp)
    2578:	0022                	c.slli	zero,0x8
    257a:	5f5f 695f 746e      	0x746e695f5f5f
    2580:	6c5f 6165 7473      	0x747361656c5f
    2586:	3631                	jal	2092 <_erodata+0x1f52>
    2588:	745f 645f 6665      	0x6665645f745f
    258e:	6e69                	lui	t3,0x1a
    2590:	6465                	lui	s0,0x19
    2592:	3120                	fld	fs0,96(a0)
    2594:	5f00                	lw	s0,56(a4)
    2596:	4f5f 5342 4c4f      	0x4c4f53424f5f
    259c:	5445                	li	s0,-15
    259e:	5f45                	li	t5,-15
    25a0:	414d                	li	sp,19
    25a2:	4854                	lw	a3,20(s0)
    25a4:	465f 4f4c 5441      	0x54414f4c465f
    25aa:	5f20                	lw	s0,120(a4)
    25ac:	4f5f 5342 4c4f      	0x4c4f53424f5f
    25b2:	5445                	li	s0,-15
    25b4:	5f45                	li	t5,-15
    25b6:	414d                	li	sp,19
    25b8:	4854                	lw	a3,20(s0)
    25ba:	5f00                	lw	s0,56(a4)
    25bc:	495f 544e 414d      	0x414d544e495f
    25c2:	5f58                	lw	a4,60(a4)
    25c4:	54444957          	0x54444957
    25c8:	5f48                	lw	a0,60(a4)
    25ca:	205f 3436 5f00      	0x5f003436205f
    25d0:	475f 4343 495f      	0x495f4343475f
    25d6:	4345                	li	t1,17
    25d8:	355f 3935 3020      	0x30203935355f
    25de:	5500                	lw	s0,40(a0)
    25e0:	4e49                	li	t3,18
    25e2:	5f54                	lw	a3,60(a4)
    25e4:	454c                	lw	a1,12(a0)
    25e6:	5341                	li	t1,-16
    25e8:	3854                	fld	fa3,176(s0)
    25ea:	4d5f 5841 2820      	0x282058414d5f
    25f0:	5f5f 4955 544e      	0x544e49555f5f
    25f6:	4c5f 4145 5453      	0x545341454c5f
    25fc:	5f38                	lw	a4,120(a4)
    25fe:	414d                	li	sp,19
    2600:	5f58                	lw	a4,60(a4)
    2602:	295f 5f00 495f      	0x495f5f00295f
    2608:	544e                	lw	s0,240(sp)
    260a:	4c5f 4145 5453      	0x545341454c5f
    2610:	3631                	jal	211c <_erodata+0x1fdc>
    2612:	545f 5059 5f45      	0x5f455059545f
    2618:	205f 6873 726f      	0x726f6873205f
    261e:	2074                	fld	fa3,192(s0)
    2620:	6e69                	lui	t3,0x1a
    2622:	0074                	addi	a3,sp,12
    2624:	5f5f 4c46 3354      	0x33544c465f5f
    262a:	5f32                	lw	t5,44(sp)
    262c:	414d                	li	sp,19
    262e:	5f58                	lw	a4,60(a4)
    2630:	5845                	li	a6,-15
    2632:	5f50                	lw	a2,60(a4)
    2634:	205f 3231 0038      	0x383231205f
    263a:	5f5f 4347 5f43      	0x5f4343475f5f
    2640:	5441                	li	s0,-16
    2642:	43494d4f          	fnmadd.d	fs10,fs2,fs4,fs0,rmm
    2646:	435f 4148 5f52      	0x5f524148435f
    264c:	4f4c                	lw	a1,28(a4)
    264e:	465f4b43          	fmadd.q	fs6,ft10,ft5,fs0,rmm
    2652:	4552                	lw	a0,20(sp)
    2654:	2045                	jal	26f4 <_erodata+0x25b4>
    2656:	0031                	c.nop	12
    2658:	5f5f 424d 455f      	0x455f424d5f5f
    265e:	5458                	lw	a4,44(s0)
    2660:	4e45                	li	t3,17
    2662:	4544                	lw	s1,12(a0)
    2664:	5f44                	lw	s1,60(a4)
    2666:	52414843          	fmadd.d	fa6,ft2,ft4,fa0,rmm
    266a:	53544553          	0x53544553
    266e:	415f 4c4c 5f00      	0x5f004c4c415f
    2674:	4c5f 4145 5453      	0x545341454c5f
    267a:	22203233          	0x22203233
    267e:	226c                	fld	fa1,192(a2)
    2680:	5f00                	lw	s0,56(a4)
    2682:	485f 5641 5f45      	0x5f455641485f
    2688:	5542                	lw	a0,48(sp)
    268a:	4c49                	li	s8,18
    268c:	4954                	lw	a3,20(a0)
    268e:	5f4e                	lw	t5,240(sp)
    2690:	4646                	lw	a2,80(sp)
    2692:	00312053          	fadd.s	ft0,ft2,ft3,rdn
    2696:	5f5f 4e49 3854      	0x38544e495f5f
    269c:	435f 6328 2029      	0x20296328435f
    26a2:	5f5f0063          	beq	t5,s5,2c82 <_erodata+0x2b42>
    26a6:	695f 746e 6c5f      	0x6c5f746e695f
    26ac:	6165                	addi	sp,sp,112
    26ae:	32337473          	csrrci	s0,mhpmevent3,6
    26b2:	745f 645f 6665      	0x6665645f745f
    26b8:	6e69                	lui	t3,0x1a
    26ba:	6465                	lui	s0,0x19
    26bc:	3120                	fld	fs0,96(a0)
    26be:	5f00                	lw	s0,56(a4)
    26c0:	5f5f 6e69 3174      	0x31746e695f5f
    26c6:	5f36                	lw	t5,108(sp)
    26c8:	5f74                	lw	a3,124(a4)
    26ca:	6564                	flw	fs1,76(a0)
    26cc:	6966                	flw	fs2,88(sp)
    26ce:	656e                	flw	fa0,216(sp)
    26d0:	2064                	fld	fs1,192(s0)
    26d2:	0031                	c.nop	12
    26d4:	5f5f 4347 5f43      	0x5f4343475f5f
    26da:	5441                	li	s0,-16
    26dc:	43494d4f          	fnmadd.d	fs10,fs2,fs4,fs0,rmm
    26e0:	4c5f 4e4f 5f47      	0x5f474e4f4c5f
    26e6:	4f4c                	lw	a1,28(a4)
    26e8:	465f4b43          	fmadd.q	fs6,ft10,ft5,fs0,rmm
    26ec:	4552                	lw	a0,20(sp)
    26ee:	2045                	jal	278e <_erodata+0x264e>
    26f0:	0031                	c.nop	12
    26f2:	415f 696c 6e67      	0x6e67696c415f
    26f8:	7828666f          	jal	a2,88e7a <_erodata+0x88d3a>
    26fc:	2029                	jal	2706 <_erodata+0x25c6>
    26fe:	5f5f 6c61 6769      	0x67696c615f5f
    2704:	6f6e                	flw	ft10,216(sp)
    2706:	2866                	fld	fa6,88(sp)
    2708:	2978                	fld	fa4,208(a0)
    270a:	5f00                	lw	s0,56(a4)
    270c:	465f 544c 3233      	0x3233544c465f
    2712:	5f58                	lw	a4,60(a4)
    2714:	4944                	lw	s1,20(a0)
    2716:	205f5f47          	fmsub.s	ft10,ft10,ft5,ft4,unknown
    271a:	3531                	jal	2526 <_erodata+0x23e6>
    271c:	5f00                	lw	s0,56(a4)
    271e:	615f 696c 6e67      	0x6e67696c615f
    2724:	6465                	lui	s0,0x19
    2726:	7828                	flw	fa0,112(s0)
    2728:	2029                	jal	2732 <_erodata+0x25f2>
    272a:	5f5f 7461 7274      	0x727474615f5f
    2730:	6269                	lui	tp,0x1a
    2732:	7475                	lui	s0,0xffffd
    2734:	5f65                	li	t5,-7
    2736:	285f 5f28 615f      	0x615f5f28285f
    273c:	696c                	flw	fa1,84(a0)
    273e:	64656e67          	0x64656e67
    2742:	5f5f 7828 2929      	0x292978285f5f
    2748:	0029                	c.nop	10
    274a:	5f5f 4c46 3354      	0x33544c465f5f
    2750:	5832                	lw	a6,44(sp)
    2752:	4d5f 4e41 5f54      	0x5f544e414d5f
    2758:	4944                	lw	s1,20(a0)
    275a:	205f5f47          	fmsub.s	ft10,ft10,ft5,ft4,unknown
    275e:	3335                	jal	248a <_erodata+0x234a>
    2760:	5f00                	lw	s0,56(a4)
    2762:	4e49                	li	t3,18
    2764:	5054                	lw	a3,36(s0)
    2766:	5254                	lw	a3,36(a2)
    2768:	545f 445f 4345      	0x4345445f545f
    276e:	414c                	lw	a1,4(a0)
    2770:	4552                	lw	a0,20(sp)
    2772:	2044                	fld	fs1,128(s0)
    2774:	5f00                	lw	s0,56(a4)
    2776:	695f 746e 665f      	0x665f746e695f
    277c:	7361                	lui	t1,0xffff8
    277e:	3674                	fld	fa3,232(a2)
    2780:	5f34                	lw	a3,120(a4)
    2782:	5f74                	lw	a3,124(a4)
    2784:	6564                	flw	fs1,76(a0)
    2786:	6966                	flw	fs2,88(sp)
    2788:	656e                	flw	fa0,216(sp)
    278a:	2064                	fld	fs1,192(s0)
    278c:	0031                	c.nop	12
    278e:	5f5f 4148 4556      	0x455641485f5f
    2794:	425f 4955 544c      	0x544c4955425f
    279a:	4e49                	li	t3,18
    279c:	495f 4953 464e      	0x464e4953495f
    27a2:	3120                	fld	fs0,96(a0)
    27a4:	5500                	lw	s0,40(a0)
    27a6:	4e49                	li	t3,18
    27a8:	3154                	fld	fa3,160(a0)
    27aa:	5f36                	lw	t5,108(sp)
    27ac:	29782843          	fmadd.s	fa6,fa6,fs7,ft5,rdn
    27b0:	5f20                	lw	s0,120(a4)
    27b2:	555f 4e49 3154      	0x31544e49555f
    27b8:	5f36                	lw	t5,108(sp)
    27ba:	29782843          	fmadd.s	fa6,fa6,fs7,ft5,rdn
    27be:	4300                	lw	s0,0(a4)
    27c0:	555f5253          	0x555f5253
    27c4:	5241                	li	tp,-16
    27c6:	5f54                	lw	a3,60(a4)
    27c8:	5645                	li	a2,-15
    27ca:	505f 4e45 4944      	0x49444e45505f
    27d0:	474e                	lw	a4,208(sp)
    27d2:	415f 4444 2052      	0x20524444415f
    27d8:	4328                	lw	a0,64(a4)
    27da:	425f5253          	0x425f5253
    27de:	5341                	li	t1,-16
    27e0:	2045                	jal	2880 <_erodata+0x2740>
    27e2:	7830202b          	0x7830202b
    27e6:	3031                	jal	1ff2 <_erodata+0x1eb2>
    27e8:	294c                	fld	fa1,144(a0)
    27ea:	5f00                	lw	s0,56(a4)
    27ec:	435f 4148 5f52      	0x5f524148435f
    27f2:	4942                	lw	s2,16(sp)
    27f4:	5f54                	lw	a3,60(a4)
    27f6:	205f 0038 5f5f      	0x5f5f0038205f
    27fc:	4244                	lw	s1,4(a2)
    27fe:	5f4c                	lw	a1,60(a4)
    2800:	494d                	li	s2,19
    2802:	5f4e                	lw	t5,240(sp)
    2804:	205f 2828 6f64      	0x6f642828205f
    280a:	6275                	lui	tp,0x1d
    280c:	656c                	flw	fa1,76(a0)
    280e:	3229                	jal	2118 <_erodata+0x1fd8>
    2810:	322e                	fld	ft4,232(sp)
    2812:	3532                	fld	fa0,296(sp)
    2814:	3730                	fld	fa2,104(a4)
    2816:	38353833          	0x38353833
    281a:	3035                	jal	2046 <_erodata+0x1f06>
    281c:	31303237          	lui	tp,0x31303
    2820:	30333833          	0x30333833
    2824:	3039                	jal	2032 <_erodata+0x1ef2>
    2826:	3332                	fld	ft6,296(sp)
    2828:	3732                	fld	fa4,296(sp)
    282a:	3731                	jal	2736 <_erodata+0x25f6>
    282c:	34323333          	0x34323333
    2830:	3430                	fld	fa2,104(s0)
    2832:	3630                	fld	fa2,104(a2)
    2834:	2d65                	jal	2eec <_erodata+0x2dac>
    2836:	4c383033          	0x4c383033
    283a:	0029                	c.nop	10
    283c:	4e49                	li	t3,18
    283e:	5f54                	lw	a3,60(a4)
    2840:	454c                	lw	a1,12(a0)
    2842:	5341                	li	t1,-16
    2844:	3854                	fld	fa3,176(s0)
    2846:	4d5f 5841 2820      	0x282058414d5f
    284c:	5f5f 4e49 5f54      	0x5f544e495f5f
    2852:	454c                	lw	a1,12(a0)
    2854:	5341                	li	t1,-16
    2856:	3854                	fld	fa3,176(s0)
    2858:	4d5f 5841 5f5f      	0x5f5f58414d5f
    285e:	0029                	c.nop	10
    2860:	5f5f 4e49 5054      	0x50544e495f5f
    2866:	5254                	lw	a3,36(a2)
    2868:	575f 4449 4854      	0x48544449575f
    286e:	5f5f 3320 0032      	0x3233205f5f
    2874:	455f 444e 535f      	0x535f444e455f
    287a:	4454                	lw	a3,12(s0)
    287c:	435f 0020 5f5f      	0x5f5f0020435f
    2882:	4946                	lw	s2,80(sp)
    2884:	494e                	lw	s2,208(sp)
    2886:	4554                	lw	a3,12(a0)
    2888:	4d5f 5441 5f48      	0x5f4854414d5f
    288e:	594c4e4f          	fnmadd.s	ft8,fs8,fs4,fa1,rmm
    2892:	5f5f 3020 6d00      	0x6d0030205f5f
    2898:	6e69                	lui	t3,0x1a
    289a:	7828                	flw	fa0,112(s0)
    289c:	792c                	flw	fa1,112(a0)
    289e:	2029                	jal	28a8 <_erodata+0x2768>
    28a0:	2828                	fld	fa0,80(s0)
    28a2:	7828                	flw	fa0,112(s0)
    28a4:	2029                	jal	28ae <_erodata+0x276e>
    28a6:	203c                	fld	fa5,64(s0)
    28a8:	7928                	flw	fa0,112(a0)
    28aa:	2929                	jal	2cc4 <_erodata+0x2b84>
    28ac:	3f20                	fld	fs0,120(a4)
    28ae:	2820                	fld	fs0,80(s0)
    28b0:	2978                	fld	fa4,208(a0)
    28b2:	3a20                	fld	fs0,112(a2)
    28b4:	2820                	fld	fs0,80(s0)
    28b6:	2979                	jal	2d54 <_erodata+0x2c14>
    28b8:	0029                	c.nop	10
    28ba:	495f 544e 414d      	0x414d544e495f
    28c0:	5f58                	lw	a4,60(a4)
    28c2:	5f54                	lw	a3,60(a4)
    28c4:	4544                	lw	s1,12(a0)
    28c6:	52414c43          	fmadd.d	fs8,ft2,ft4,fa0,rmm
    28ca:	4445                	li	s0,17
    28cc:	0020                	addi	s0,sp,8
    28ce:	5f525343          	fmadd.q	ft6,ft4,fs5,fa1,unknown
    28d2:	4155                	li	sp,21
    28d4:	5452                	lw	s0,52(sp)
    28d6:	455f 5f56 5453      	0x54535f56455f
    28dc:	5441                	li	s0,-16
    28de:	5355                	li	t1,-11
    28e0:	525f 5f58 4953      	0x49535f58525f
    28e6:	455a                	lw	a0,148(sp)
    28e8:	3120                	fld	fs0,96(a0)
    28ea:	5f00                	lw	s0,56(a4)
    28ec:	465f 544c 3436      	0x3436544c465f
    28f2:	4d5f 5841 5f5f      	0x5f5f58414d5f
    28f8:	3120                	fld	fs0,96(a0)
    28fa:	372e                	fld	fa4,232(sp)
    28fc:	3739                	jal	280a <_erodata+0x26ca>
    28fe:	3936                	fld	fs2,360(sp)
    2900:	34333133          	0x34333133
    2904:	3638                	fld	fa4,104(a2)
    2906:	3332                	fld	ft6,296(sp)
    2908:	3531                	jal	2714 <_erodata+0x25d4>
    290a:	31383037          	lui	zero,0x31383
    290e:	3534                	fld	fa3,104(a0)
    2910:	3732                	fld	fa4,296(sp)
    2912:	3234                	fld	fa3,96(a2)
    2914:	31333733          	0x31333733
    2918:	33343037          	lui	zero,0x33343
    291c:	3735                	jal	2848 <_erodata+0x2708>
    291e:	2b65                	jal	2ed6 <_erodata+0x2d96>
    2920:	46383033          	0x46383033
    2924:	3436                	fld	fs0,360(sp)
    2926:	5f00                	lw	s0,56(a4)
    2928:	545f 5248 574f      	0x574f5248545f
    292e:	0020                	addi	s0,sp,8
    2930:	5f5f 6168 5f73      	0x5f7361685f5f
    2936:	6566                	flw	fa0,88(sp)
    2938:	7461                	lui	s0,0xffff8
    293a:	7275                	lui	tp,0xffffd
    293c:	2865                	jal	29f4 <_erodata+0x28b4>
    293e:	2978                	fld	fa4,208(a0)
    2940:	3020                	fld	fs0,96(s0)
    2942:	4300                	lw	s0,0(a4)
    2944:	49464e4f          	fnmadd.s	ft8,fa2,fs4,fs1,rmm
    2948:	4f525f47          	fmsub.q	ft10,ft4,fs5,fs1,unknown
    294c:	5f4d                	li	t5,-13
    294e:	4e49                	li	t3,18
    2950:	5449                	li	s0,-14
    2952:	3120                	fld	fs0,96(a0)
    2954:	5f00                	lw	s0,56(a4)
    2956:	475f 4343 415f      	0x415f4343475f
    295c:	4f54                	lw	a3,28(a4)
    295e:	494d                	li	s2,19
    2960:	45545f43          	0x45545f43
    2964:	415f5453          	0x415f5453
    2968:	444e                	lw	s0,208(sp)
    296a:	535f 5445 545f      	0x545f5445535f
    2970:	5552                	lw	a0,52(sp)
    2972:	5645                	li	a2,-15
    2974:	4c41                	li	s8,16
    2976:	3120                	fld	fs0,96(a0)
    2978:	5500                	lw	s0,40(a0)
    297a:	4e49                	li	t3,18
    297c:	3854                	fld	fa3,176(s0)
    297e:	435f 7828 2029      	0x20297828435f
    2984:	5f5f 4955 544e      	0x544e49555f5f
    298a:	5f38                	lw	a4,120(a4)
    298c:	29782843          	fmadd.s	fa6,fa6,fs7,ft5,rdn
    2990:	5f00                	lw	s0,56(a4)
    2992:	725f 7365 7274      	0x72747365725f
    2998:	6369                	lui	t1,0x1a
    299a:	5f74                	lw	a3,124(a4)
    299c:	7261                	lui	tp,0xffff8
    299e:	2072                	fld	ft0,280(sp)
    29a0:	6572                	flw	fa0,28(sp)
    29a2:	69727473          	csrrci	s0,0x697,4
    29a6:	43007463          	bgeu	zero,a6,2dce <_erodata+0x2c8e>
    29aa:	4f5f5253          	0x4f5f5253
    29ae:	4646                	lw	a2,80(sp)
    29b0:	5f544553          	0x5f544553
    29b4:	5942                	lw	s2,48(sp)
    29b6:	4554                	lw	a3,12(a0)
    29b8:	00342053          	fadd.s	ft0,fs0,ft3,rdn
    29bc:	5f5f 4c46 3654      	0x36544c465f5f
    29c2:	5834                	lw	a3,112(s0)
    29c4:	4d5f 5841 5f5f      	0x5f5f58414d5f
    29ca:	3120                	fld	fs0,96(a0)
    29cc:	312e                	fld	ft2,232(sp)
    29ce:	3938                	fld	fa4,112(a0)
    29d0:	34313337          	lui	t1,0x34313
    29d4:	3539                	jal	27e2 <_erodata+0x26a2>
    29d6:	32373533          	0x32373533
    29da:	36373133          	0x36373133
    29de:	3035                	jal	220a <_erodata+0x20ca>
    29e0:	3538                	fld	fa4,104(a0)
    29e2:	33393537          	lui	a0,0x33393
    29e6:	3632                	fld	fa2,296(sp)
    29e8:	3236                	fld	ft4,360(sp)
    29ea:	3038                	fld	fa4,96(s0)
    29ec:	3730                	fld	fa2,104(a4)
    29ee:	3230                	fld	fa2,96(a2)
    29f0:	2b65                	jal	2fa8 <_erodata+0x2e68>
    29f2:	3934                	fld	fa3,112(a0)
    29f4:	36463233          	0x36463233
    29f8:	7834                	flw	fa3,112(s0)
    29fa:	5f00                	lw	s0,56(a4)
    29fc:	465f 544c 3233      	0x3233544c465f
    2a02:	5f58                	lw	a4,60(a4)
    2a04:	494d                	li	s2,19
    2a06:	5f4e                	lw	t5,240(sp)
    2a08:	205f 2e32 3232      	0x32322e32205f
    2a0e:	3035                	jal	223a <_erodata+0x20fa>
    2a10:	35383337          	lui	t1,0x35383
    2a14:	3538                	fld	fa4,104(a0)
    2a16:	3730                	fld	fa2,104(a4)
    2a18:	3032                	fld	ft0,296(sp)
    2a1a:	3331                	jal	2726 <_erodata+0x25e6>
    2a1c:	3338                	fld	fa4,96(a4)
    2a1e:	3930                	fld	fa2,112(a0)
    2a20:	3230                	fld	fa2,96(a2)
    2a22:	31373233          	0x31373233
    2a26:	32333337          	lui	t1,0x32333
    2a2a:	3034                	fld	fa3,96(s0)
    2a2c:	3034                	fld	fa3,96(s0)
    2a2e:	6536                	flw	fa0,76(sp)
    2a30:	332d                	jal	275a <_erodata+0x261a>
    2a32:	3830                	fld	fa2,112(s0)
    2a34:	3346                	fld	ft6,112(sp)
    2a36:	7832                	flw	fa6,44(sp)
    2a38:	5f00                	lw	s0,56(a4)
    2a3a:	465f 544c 3436      	0x3436544c465f
    2a40:	5f58                	lw	a4,60(a4)
    2a42:	4148                	lw	a0,4(a0)
    2a44:	4e495f53          	0x4e495f53
    2a48:	4946                	lw	s2,80(sp)
    2a4a:	494e                	lw	s2,208(sp)
    2a4c:	5954                	lw	a3,52(a0)
    2a4e:	5f5f 3120 5f00      	0x5f0031205f5f
    2a54:	495f 544e 3631      	0x3631544e495f
    2a5a:	435f 6328 2029      	0x20296328435f
    2a60:	5f5f0063          	beq	t5,s5,3040 <_erodata+0x2f00>
    2a64:	5f434347          	fmsub.q	ft6,ft6,fs4,fa1,rmm
    2a68:	4148                	lw	a0,4(a0)
    2a6a:	4556                	lw	a0,84(sp)
    2a6c:	445f 4157 4652      	0x46524157445f
    2a72:	5f32                	lw	t5,44(sp)
    2a74:	5f494643          	fmadd.q	fa2,fs2,fs4,fa1,rmm
    2a78:	5341                	li	t1,-16
    2a7a:	204d                	jal	2b1c <_erodata+0x29dc>
    2a7c:	0031                	c.nop	12
    2a7e:	5f5f 4955 544e      	0x544e49555f5f
    2a84:	3436                	fld	fs0,360(sp)
    2a86:	4d5f 5841 5f5f      	0x5f5f58414d5f
    2a8c:	3020                	fld	fs0,96(s0)
    2a8e:	6678                	flw	fa4,76(a2)
    2a90:	6666                	flw	fa2,88(sp)
    2a92:	6666                	flw	fa2,88(sp)
    2a94:	6666                	flw	fa2,88(sp)
    2a96:	6666                	flw	fa2,88(sp)
    2a98:	6666                	flw	fa2,88(sp)
    2a9a:	6666                	flw	fa2,88(sp)
    2a9c:	6666                	flw	fa2,88(sp)
    2a9e:	5566                	lw	a0,120(sp)
    2aa0:	4c4c                	lw	a1,28(s0)
    2aa2:	5f00                	lw	s0,56(a4)
    2aa4:	495f 544e 465f      	0x465f544e495f
    2aaa:	5341                	li	t1,-16
    2aac:	3354                	fld	fa3,160(a4)
    2aae:	5f32                	lw	t5,44(sp)
    2ab0:	414d                	li	sp,19
    2ab2:	5f58                	lw	a4,60(a4)
    2ab4:	205f 7830 6637      	0x66377830205f
    2aba:	6666                	flw	fa2,88(sp)
    2abc:	6666                	flw	fa2,88(sp)
    2abe:	6666                	flw	fa2,88(sp)
    2ac0:	5f00                	lw	s0,56(a4)
    2ac2:	465f 544c 3436      	0x3436544c465f
    2ac8:	5f58                	lw	a4,60(a4)
    2aca:	4148                	lw	a0,4(a0)
    2acc:	55515f53          	0x55515f53
    2ad0:	4549                	li	a0,18
    2ad2:	5f54                	lw	a3,60(a4)
    2ad4:	414e                	lw	sp,208(sp)
    2ad6:	5f4e                	lw	t5,240(sp)
    2ad8:	205f 0031 5f5f      	0x5f5f0031205f
    2ade:	4c46                	lw	s8,80(sp)
    2ae0:	5f54                	lw	a3,60(a4)
    2ae2:	4148                	lw	a0,4(a0)
    2ae4:	4e495f53          	0x4e495f53
    2ae8:	4946                	lw	s2,80(sp)
    2aea:	494e                	lw	s2,208(sp)
    2aec:	5954                	lw	a3,52(a0)
    2aee:	5f5f 3120 4300      	0x430031205f5f
    2af4:	555f5253          	0x555f5253
    2af8:	5241                	li	tp,-16
    2afa:	5f54                	lw	a3,60(a4)
    2afc:	5852                	lw	a6,52(sp)
    2afe:	5854                	lw	a3,52(s0)
    2b00:	415f 4444 2052      	0x20524444415f
    2b06:	4328                	lw	a0,64(a4)
    2b08:	425f5253          	0x425f5253
    2b0c:	5341                	li	t1,-16
    2b0e:	2045                	jal	2bae <_erodata+0x2a6e>
    2b10:	7830202b          	0x7830202b
    2b14:	4c30                	lw	a2,88(s0)
    2b16:	0029                	c.nop	10
    2b18:	5f5f 6567 656e      	0x656e65675f5f
    2b1e:	6972                	flw	fs2,28(sp)
    2b20:	78652863          	0x78652863
    2b24:	7270                	flw	fa2,100(a2)
    2b26:	742c                	flw	fa1,104(s0)
    2b28:	792c                	flw	fa1,112(a0)
    2b2a:	7365                	lui	t1,0xffff9
    2b2c:	6e2c                	flw	fa1,88(a2)
    2b2e:	5f20296f          	jal	s2,5120 <_erodata+0x4fe0>
    2b32:	625f 6975 746c      	0x746c6975625f
    2b38:	6e69                	lui	t3,0x1a
    2b3a:	635f 6f68 736f      	0x736f6f68635f
    2b40:	5f65                	li	t5,-7
    2b42:	7865                	lui	a6,0xffff9
    2b44:	7270                	flw	fa2,100(a2)
    2b46:	2028                	fld	fa0,64(s0)
    2b48:	5f5f 7562 6c69      	0x6c6975625f5f
    2b4e:	6974                	flw	fa3,84(a0)
    2b50:	5f6e                	lw	t5,248(sp)
    2b52:	7974                	flw	fa3,116(a0)
    2b54:	6570                	flw	fa2,76(a0)
    2b56:	6f635f73          	csrrwi	t5,0x6f6,6
    2b5a:	706d                	c.lui	zero,0xffffb
    2b5c:	7461                	lui	s0,0xffff8
    2b5e:	6269                	lui	tp,0x1a
    2b60:	656c                	flw	fa1,76(a0)
    2b62:	705f 5f28 745f      	0x745f5f28705f
    2b68:	7079                	c.lui	zero,0xffffe
    2b6a:	6f65                	lui	t5,0x19
    2b6c:	2866                	fld	fa6,88(sp)
    2b6e:	3028                	fld	fa0,96(s0)
    2b70:	202c                	fld	fa1,64(s0)
    2b72:	6528                	flw	fa0,72(a0)
    2b74:	7078                	flw	fa4,100(s0)
    2b76:	2972                	fld	fs2,280(sp)
    2b78:	2929                	jal	2f92 <_erodata+0x2e52>
    2b7a:	202c                	fld	fa1,64(s0)
    2b7c:	2974                	fld	fa3,208(a0)
    2b7e:	202c                	fld	fa1,64(s0)
    2b80:	6579                	lui	a0,0x1e
    2b82:	6e202c73          	csrr	s8,0x6e2
    2b86:	4900296f          	jal	s2,5016 <_erodata+0x4ed6>
    2b8a:	544e                	lw	s0,240(sp)
    2b8c:	4d5f3233          	0x4d5f3233
    2b90:	4e49                	li	t3,18
    2b92:	2820                	fld	fs0,80(s0)
    2b94:	5f2d                	li	t5,-21
    2b96:	495f 544e 3233      	0x3233544e495f
    2b9c:	4d5f 5841 5f5f      	0x5f5f58414d5f
    2ba2:	2d20                	fld	fs0,88(a0)
    2ba4:	3120                	fld	fs0,96(a0)
    2ba6:	0029                	c.nop	10
    2ba8:	5f5f 6f6e 6e69      	0x6e696f6e5f5f
    2bae:	696c                	flw	fa1,84(a0)
    2bb0:	656e                	flw	fa0,216(sp)
    2bb2:	5f20                	lw	s0,120(a4)
    2bb4:	615f 7474 6972      	0x69727474615f
    2bba:	7562                	flw	fa0,56(sp)
    2bbc:	6574                	flw	fa3,76(a0)
    2bbe:	5f5f 2828 5f5f      	0x5f5f28285f5f
    2bc4:	6f6e                	flw	ft10,216(sp)
    2bc6:	6e69                	lui	t3,0x1a
    2bc8:	696c                	flw	fa1,84(a0)
    2bca:	656e                	flw	fa0,216(sp)
    2bcc:	5f5f 2929 5f00      	0x5f0029295f5f
    2bd2:	775f 6165 206b      	0x206b6165775f
    2bd8:	5f5f 7461 7274      	0x727474615f5f
    2bde:	6269                	lui	tp,0x1a
    2be0:	7475                	lui	s0,0xffffd
    2be2:	5f65                	li	t5,-7
    2be4:	285f 5f28 775f      	0x775f5f28285f
    2bea:	6165                	addi	sp,sp,112
    2bec:	295f5f6b          	0x295f5f6b
    2bf0:	0029                	c.nop	10
    2bf2:	5f5f 6e69 5f74      	0x5f746e695f5f
    2bf8:	6166                	flw	ft2,88(sp)
    2bfa:	32337473          	csrrci	s0,mhpmevent3,6
    2bfe:	745f 645f 6665      	0x6665645f745f
    2c04:	6e69                	lui	t3,0x1a
    2c06:	6465                	lui	s0,0x19
    2c08:	3120                	fld	fs0,96(a0)
    2c0a:	5f00                	lw	s0,56(a4)
    2c0c:	535f 4454 5f43      	0x5f434454535f
    2c12:	205f 0031 5f5f      	0x5f5f0031205f
    2c18:	49445453          	0x49445453
    2c1c:	544e                	lw	s0,240(sp)
    2c1e:	455f 5058 7828      	0x78285058455f
    2c24:	2029                	jal	2c2e <_erodata+0x2aee>
    2c26:	5f5f 2320 7823      	0x782323205f5f
    2c2c:	2320                	fld	fs0,64(a4)
    2c2e:	005f5f23          	0x5f5f23
    2c32:	5f5f 4953 455a      	0x455a49535f5f
    2c38:	4c5f464f          	0x4c5f464f
    2c3c:	5f474e4f          	fnmadd.q	ft8,fa4,fs4,fa1,rmm
    2c40:	205f 0034 5f5f      	0x5f5f0034205f
    2c46:	6e69                	lui	t3,0x1a
    2c48:	3274                	fld	fa3,224(a2)
    2c4a:	2030                	fld	fa2,64(s0)
    2c4c:	5f00322b          	0x5f00322b
    2c50:	755f 756e 6573      	0x6573756e755f
    2c56:	2064                	fld	fs1,192(s0)
    2c58:	5f5f 7461 7274      	0x727474615f5f
    2c5e:	6269                	lui	tp,0x1a
    2c60:	7475                	lui	s0,0xffffd
    2c62:	5f65                	li	t5,-7
    2c64:	285f 5f28 755f      	0x755f5f28285f
    2c6a:	756e                	flw	fa0,248(sp)
    2c6c:	5f646573          	csrrsi	a0,0x5f6,8
    2c70:	295f 0029 5f5f      	0x5f5f0029295f
    2c76:	4244                	lw	s1,4(a2)
    2c78:	5f4c                	lw	a1,60(a4)
    2c7a:	414d                	li	sp,19
    2c7c:	5f58                	lw	a4,60(a4)
    2c7e:	5845                	li	a6,-15
    2c80:	5f50                	lw	a2,60(a4)
    2c82:	205f 3031 3432      	0x34323031205f
    2c88:	7500                	flw	fs0,40(a0)
    2c8a:	7261                	lui	tp,0xffff8
    2c8c:	5f74                	lw	a3,124(a4)
    2c8e:	7872                	flw	fa6,60(sp)
    2c90:	7874                	flw	fa3,116(s0)
    2c92:	775f 6972 6574      	0x65746972775f
    2c98:	5f00                	lw	s0,56(a4)
    2c9a:	415f 4f54 494d      	0x494d4f54415f
    2ca0:	4f435f43          	fmadd.q	ft10,ft6,fs4,fs1,unknown
    2ca4:	534e                	lw	t1,240(sp)
    2ca6:	4d55                	li	s10,21
    2ca8:	2045                	jal	2d48 <_erodata+0x2c08>
    2caa:	0031                	c.nop	12
    2cac:	5f5f 6e75 6f62      	0x6f626e755f5f
    2cb2:	6e75                	lui	t3,0x1d
    2cb4:	6564                	flw	fs1,76(a0)
    2cb6:	2064                	fld	fs1,192(s0)
    2cb8:	5f00                	lw	s0,56(a4)
    2cba:	495f 544e 465f      	0x465f544e495f
    2cc0:	5341                	li	t1,-16
    2cc2:	3354                	fld	fa3,160(a4)
    2cc4:	5f32                	lw	t5,44(sp)
    2cc6:	54444957          	0x54444957
    2cca:	5f48                	lw	a0,60(a4)
    2ccc:	205f 3233 5f00      	0x5f003233205f
    2cd2:	465f 544c 3436      	0x3436544c465f
    2cd8:	5f58                	lw	a4,60(a4)
    2cda:	414d                	li	sp,19
    2cdc:	544e                	lw	s0,240(sp)
    2cde:	445f 4749 5f5f      	0x5f5f4749445f
    2ce4:	3120                	fld	fs0,96(a0)
    2ce6:	3331                	jal	29f2 <_erodata+0x28b2>
    2ce8:	5f00                	lw	s0,56(a4)
    2cea:	575f 4e49 5f54      	0x5f544e49575f
    2cf0:	5954                	lw	a3,52(a0)
    2cf2:	4550                	lw	a2,12(a0)
    2cf4:	5f5f 7520 736e      	0x736e75205f5f
    2cfa:	6769                	lui	a4,0x1a
    2cfc:	656e                	flw	fa0,216(sp)
    2cfe:	2064                	fld	fs1,192(s0)
    2d00:	6e69                	lui	t3,0x1a
    2d02:	0074                	addi	a3,sp,12
    2d04:	5f5f 4f4c 474e      	0x474e4f4c5f5f
    2d0a:	4d5f 5841 5f5f      	0x5f5f58414d5f
    2d10:	3020                	fld	fs0,96(s0)
    2d12:	3778                	fld	fa4,232(a4)
    2d14:	6666                	flw	fa2,88(sp)
    2d16:	6666                	flw	fa2,88(sp)
    2d18:	6666                	flw	fa2,88(sp)
    2d1a:	4c66                	lw	s8,88(sp)
    2d1c:	5f00                	lw	s0,56(a4)
    2d1e:	495f 544e 3631      	0x3631544e495f
    2d24:	4d5f 5841 5f5f      	0x5f5f58414d5f
    2d2a:	3020                	fld	fs0,96(s0)
    2d2c:	3778                	fld	fa4,232(a4)
    2d2e:	6666                	flw	fa2,88(sp)
    2d30:	0066                	c.slli	zero,0x19
    2d32:	5f727363          	bgeu	tp,s7,3318 <_erodata+0x31d8>
    2d36:	6572                	flw	fa0,28(sp)
    2d38:	6461                	lui	s0,0x18
    2d3a:	735f 6d69 6c70      	0x6c706d69735f
    2d40:	0065                	c.nop	25
    2d42:	5f5f 444c 4c42      	0x4c42444c5f5f
    2d48:	4d5f 4e49 315f      	0x315f4e494d5f
    2d4e:	5f30                	lw	a2,120(a4)
    2d50:	5845                	li	a6,-15
    2d52:	5f50                	lw	a2,60(a4)
    2d54:	205f 2d28 3934      	0x39342d28205f
    2d5a:	00293133          	sltu	sp,s2,sp
    2d5e:	5f525343          	fmadd.q	ft6,ft4,fs5,fa1,unknown
    2d62:	4155                	li	sp,21
    2d64:	5452                	lw	s0,52(sp)
    2d66:	545f 4658 4c55      	0x4c554658545f
    2d6c:	5f4c                	lw	a1,60(a4)
    2d6e:	4441                	li	s0,16
    2d70:	5244                	lw	s1,36(a2)
    2d72:	2820                	fld	fs0,80(s0)
    2d74:	5f525343          	fmadd.q	ft6,ft4,fs5,fa1,unknown
    2d78:	4142                	lw	sp,16(sp)
    2d7a:	2b204553          	0x2b204553
    2d7e:	3020                	fld	fs0,96(s0)
    2d80:	3478                	fld	fa4,232(s0)
    2d82:	294c                	fld	fa1,144(a0)
    2d84:	5f00                	lw	s0,56(a4)
    2d86:	535f 5a49 4f45      	0x4f455a49535f
    2d8c:	5f46                	lw	t5,112(sp)
    2d8e:	4f44                	lw	s1,28(a4)
    2d90:	4255                	li	tp,21
    2d92:	454c                	lw	a1,12(a0)
    2d94:	5f5f 3820 5f00      	0x5f0038205f5f
    2d9a:	475f 554e 5f43      	0x5f43554e475f
    2da0:	4150                	lw	a2,4(a0)
    2da2:	4354                	lw	a3,4(a4)
    2da4:	4c48                	lw	a0,28(s0)
    2da6:	5645                	li	a2,-15
    2da8:	4c45                	li	s8,17
    2daa:	5f5f 3020 5f00      	0x5f0030205f5f
    2db0:	555f 4e49 3854      	0x38544e49555f
    2db6:	435f 6328 2029      	0x20296328435f
    2dbc:	53430063          	beq	t1,s4,32dc <_erodata+0x319c>
    2dc0:	5f52                	lw	t5,52(sp)
    2dc2:	4155                	li	sp,21
    2dc4:	5452                	lw	s0,52(sp)
    2dc6:	455f 5f56 4550      	0x45505f56455f
    2dcc:	444e                	lw	s0,208(sp)
    2dce:	4e49                	li	t3,18
    2dd0:	58545f47          	fmsub.s	ft10,fs0,ft5,fa1,unknown
    2dd4:	4f5f 4646 4553      	0x455346464f5f
    2dda:	2054                	fld	fa3,128(s0)
    2ddc:	0030                	addi	a2,sp,8
    2dde:	5f5f 7369 615f      	0x615f73695f5f
    2de4:	696c                	flw	fa1,84(a0)
    2de6:	64656e67          	0x64656e67
    2dea:	7828                	flw	fa0,112(s0)
    2dec:	792c                	flw	fa1,112(a0)
    2dee:	2029                	jal	2df8 <_erodata+0x2cb8>
    2df0:	5f5f 7562 6c69      	0x6c6975625f5f
    2df6:	6974                	flw	fa3,84(a0)
    2df8:	5f6e                	lw	t5,248(sp)
    2dfa:	7369                	lui	t1,0xffffa
    2dfc:	615f 696c 6e67      	0x6e67696c615f
    2e02:	6465                	lui	s0,0x19
    2e04:	7828                	flw	fa0,112(s0)
    2e06:	202c                	fld	fa1,64(s0)
    2e08:	2979                	jal	32a6 <_erodata+0x3166>
    2e0a:	5f00                	lw	s0,56(a4)
    2e0c:	445f 544f 2053      	0x2053544f445f
    2e12:	202c                	fld	fa1,64(s0)
    2e14:	2e2e                	fld	ft8,200(sp)
    2e16:	002e                	c.slli	zero,0xb
    2e18:	544e4957          	0x544e4957
    2e1c:	4d5f 5841 2820      	0x282058414d5f
    2e22:	5f5f 4957 544e      	0x544e49575f5f
    2e28:	4d5f 5841 5f5f      	0x5f5f58414d5f
    2e2e:	0029                	c.nop	10
    2e30:	5f5f 4e49 3654      	0x36544e495f5f
    2e36:	5f34                	lw	a3,120(a4)
    2e38:	5954                	lw	a3,52(a0)
    2e3a:	4550                	lw	a2,12(a0)
    2e3c:	5f5f 6c20 6e6f      	0x6e6f6c205f5f
    2e42:	6f6c2067          	0x6f6c2067
    2e46:	676e                	flw	fa4,216(sp)
    2e48:	6920                	flw	fs0,80(a0)
    2e4a:	746e                	flw	fs0,248(sp)
    2e4c:	5f00                	lw	s0,56(a4)
    2e4e:	625f 6975 746c      	0x746c6975625f
    2e54:	6e69                	lui	t3,0x1a
    2e56:	695f 5f73 6c61      	0x6c615f73695f
    2e5c:	6769                	lui	a4,0x1a
    2e5e:	656e                	flw	fa0,216(sp)
    2e60:	2864                	fld	fs1,208(s0)
    2e62:	2c78                	fld	fa4,216(s0)
    2e64:	6c61                	lui	s8,0x18
    2e66:	6769                	lui	a4,0x1a
    2e68:	296e                	fld	fs2,216(sp)
    2e6a:	2820                	fld	fs0,80(s0)
    2e6c:	2828                	fld	fa0,80(s0)
    2e6e:	5f5f 6975 746e      	0x746e69755f5f
    2e74:	7470                	flw	fa2,108(s0)
    2e76:	5f72                	lw	t5,60(sp)
    2e78:	2974                	fld	fa3,208(a0)
    2e7a:	2078                	fld	fa4,192(s0)
    2e7c:	2026                	fld	ft0,72(sp)
    2e7e:	2828                	fld	fa0,80(s0)
    2e80:	6c61                	lui	s8,0x18
    2e82:	6769                	lui	a4,0x1a
    2e84:	296e                	fld	fs2,216(sp)
    2e86:	2d20                	fld	fs0,88(a0)
    2e88:	3120                	fld	fs0,96(a0)
    2e8a:	2929                	jal	32a4 <_erodata+0x3164>
    2e8c:	3d20                	fld	fs0,120(a0)
    2e8e:	203d                	jal	2ebc <_erodata+0x2d7c>
    2e90:	2930                	fld	fa2,80(a0)
    2e92:	4300                	lw	s0,0(a4)
    2e94:	445f5253          	0x445f5253
    2e98:	4645                	li	a2,17
    2e9a:	485f5f53          	0x485f5f53
    2e9e:	0020                	addi	s0,sp,8
    2ea0:	5f5f 4e49 3154      	0x31544e495f5f
    2ea6:	2036                	fld	ft0,328(sp)
    2ea8:	6822                	flw	fa6,8(sp)
    2eaa:	0022                	c.slli	zero,0x8
    2eac:	5f5f 424d 455f      	0x455f424d5f5f
    2eb2:	5458                	lw	a4,44(s0)
    2eb4:	4e45                	li	t3,17
    2eb6:	4544                	lw	s1,12(a0)
    2eb8:	5f44                	lw	s1,60(a4)
    2eba:	52414843          	fmadd.d	fa6,ft2,ft4,fa0,rmm
    2ebe:	53544553          	0x53544553
    2ec2:	575f 4e49 4f44      	0x4f444e49575f
    2ec8:	5f005357          	0x5f005357
    2ecc:	485f 5641 5f45      	0x5f455641485f
    2ed2:	5542                	lw	a0,48(sp)
    2ed4:	4c49                	li	s8,18
    2ed6:	4954                	lw	a3,20(a0)
    2ed8:	5f4e                	lw	t5,240(sp)
    2eda:	5349                	li	t1,-14
    2edc:	4e49                	li	t3,18
    2ede:	4c46                	lw	s8,80(sp)
    2ee0:	3120                	fld	fs0,96(a0)
    2ee2:	4300                	lw	s0,0(a4)
    2ee4:	415f5253          	0x415f5253
    2ee8:	53454343          	fmadd.d	ft6,fa0,fs4,fa0,rmm
    2eec:	53524f53          	0x53524f53
    2ef0:	445f 4645 4e49      	0x4e494645445f
    2ef6:	4445                	li	s0,17
    2ef8:	0020                	addi	s0,sp,8
    2efa:	5f5f 4c46 5f54      	0x5f544c465f5f
    2f00:	4f4e                	lw	t5,208(sp)
    2f02:	4d52                	lw	s10,20(sp)
    2f04:	4d5f 5841 5f5f      	0x5f5f58414d5f
    2f0a:	3320                	fld	fs0,96(a4)
    2f0c:	342e                	fld	fs0,232(sp)
    2f0e:	3230                	fld	fa2,96(a2)
    2f10:	3238                	fld	fa4,96(a2)
    2f12:	36363433          	0x36363433
    2f16:	32353833          	0x32353833
    2f1a:	3838                	fld	fa4,112(s0)
    2f1c:	3935                	jal	2b58 <_erodata+0x2a18>
    2f1e:	3138                	fld	fa4,96(a0)
    2f20:	3731                	jal	2e2c <_erodata+0x2cec>
    2f22:	3430                	fld	fa2,104(s0)
    2f24:	3831                	jal	2740 <_erodata+0x2600>
    2f26:	34383433          	0x34383433
    2f2a:	3135                	jal	2b56 <_erodata+0x2a16>
    2f2c:	3936                	fld	fs2,360(sp)
    2f2e:	3532                	fld	fa0,296(sp)
    2f30:	2b65                	jal	34e8 <_erodata+0x33a8>
    2f32:	00463833          	sltu	a6,a2,tp
    2f36:	5f5f 5453 4344      	0x434454535f5f
    2f3c:	555f 4654 315f      	0x315f4654555f
    2f42:	5f36                	lw	t5,108(sp)
    2f44:	205f 0031 5343      	0x53430031205f
    2f4a:	5f52                	lw	t5,52(sp)
    2f4c:	4155                	li	sp,21
    2f4e:	5452                	lw	s0,52(sp)
    2f50:	525f 4558 504d      	0x504d4558525f
    2f56:	5954                	lw	a3,52(a0)
    2f58:	535f 5a49 2045      	0x20455a49535f
    2f5e:	0031                	c.nop	12
    2f60:	5f5f 7562 6c69      	0x6c6975625f5f
    2f66:	6974                	flw	fa3,84(a0)
    2f68:	5f6e                	lw	t5,248(sp)
    2f6a:	6c61                	lui	s8,0x18
    2f6c:	6769                	lui	a4,0x1a
    2f6e:	5f6e                	lw	t5,248(sp)
    2f70:	6f64                	flw	fs1,92(a4)
    2f72:	78286e77          	0x78286e77
    2f76:	612c                	flw	fa1,64(a0)
    2f78:	696c                	flw	fa1,84(a0)
    2f7a:	20296e67          	0x20296e67
    2f7e:	2828                	fld	fa0,80(s0)
    2f80:	5f5f 7974 6570      	0x657079745f5f
    2f86:	5f5f666f          	jal	a2,f9d7a <_erodata+0xf9c3a>
    2f8a:	7828                	flw	fa0,112(s0)
    2f8c:	2929                	jal	33a6 <_erodata+0x3266>
    2f8e:	2828                	fld	fa0,80(s0)
    2f90:	2978                	fld	fa4,208(a0)
    2f92:	2826                	fld	fa6,72(sp)
    2f94:	287e                	fld	fa6,472(sp)
    2f96:	6128                	flw	fa0,64(a0)
    2f98:	696c                	flw	fa1,84(a0)
    2f9a:	2d296e67          	0x2d296e67
    2f9e:	2931                	jal	33ba <_erodata+0x327a>
    2fa0:	2929                	jal	33ba <_erodata+0x327a>
    2fa2:	0029                	c.nop	10
    2fa4:	5f5f 6c61 6f6c      	0x6f6c6c615f5f
    2faa:	6c615f63          	bge	sp,t1,3688 <_erodata+0x3548>
    2fae:	6769                	lui	a4,0x1a
    2fb0:	286e                	fld	fa6,216(sp)
    2fb2:	6170                	flw	fa2,68(a0)
    2fb4:	6172                	flw	ft2,28(sp)
    2fb6:	296d                	jal	3470 <_erodata+0x3330>
    2fb8:	5f20                	lw	s0,120(a4)
    2fba:	615f 7474 6972      	0x69727474615f
    2fc0:	7562                	flw	fa0,56(sp)
    2fc2:	6574                	flw	fa3,76(a0)
    2fc4:	5f5f 2820 5f28      	0x5f2828205f5f
    2fca:	615f 6c6c 636f      	0x636f6c6c615f
    2fd0:	615f 696c 6e67      	0x6e67696c615f
    2fd6:	5f5f 7028 7261      	0x726170285f5f
    2fdc:	6d61                	lui	s10,0x18
    2fde:	2929                	jal	33f8 <_erodata+0x32b8>
    2fe0:	0029                	c.nop	10
    2fe2:	635f 7273 725f      	0x725f7273635f
    2fe8:	5f64                	lw	s1,124(a4)
    2fea:	7562                	flw	fa0,56(sp)
    2fec:	2866                	fld	fa6,88(sp)
    2fee:	2c61                	jal	3286 <_erodata+0x3146>
    2ff0:	7562                	flw	fa0,56(sp)
    2ff2:	2c66                	fld	fs8,88(sp)
    2ff4:	29746e63          	bltu	s0,s7,3290 <_erodata+0x3150>
    2ff8:	7b20                	flw	fs0,112(a4)
    2ffa:	6920                	flw	fs0,80(a0)
    2ffc:	746e                	flw	fs0,248(sp)
    2ffe:	6920                	flw	fs0,80(a0)
    3000:	202c                	fld	fa1,64(s0)
    3002:	2c6a                	fld	fs8,152(sp)
    3004:	6f20                	flw	fs0,88(a4)
    3006:	6666                	flw	fa2,88(sp)
    3008:	2c746573          	csrrsi	a0,0x2c7,8
    300c:	6e20                	flw	fs0,88(a2)
    300e:	72627573          	csrrci	a0,0x726,4
    3012:	6765                	lui	a4,0x19
    3014:	6e202c73          	csrr	s8,0x6e2
    3018:	65627573          	csrrci	a0,0x656,4
    301c:	656c                	flw	fa1,76(a0)
    301e:	736d                	lui	t1,0xffffb
    3020:	6975203b          	0x6975203b
    3024:	746e                	flw	fs0,248(sp)
    3026:	3436                	fld	fs0,360(sp)
    3028:	745f 7220 203b      	0x203b7220745f
    302e:	6669                	lui	a2,0x1a
    3030:	2820                	fld	fs0,80(s0)
    3032:	657a6973          	csrrsi	s2,0x657,20
    3036:	6228666f          	jal	a2,89658 <_erodata+0x89518>
    303a:	6675                	lui	a2,0x1d
    303c:	295d305b          	0x295d305b
    3040:	3e20                	fld	fs0,120(a2)
    3042:	203d                	jal	3070 <_erodata+0x2f30>
    3044:	5f525343          	fmadd.q	ft6,ft4,fs5,fa1,unknown
    3048:	5744                	lw	s1,44(a4)
    304a:	425f 5459 5345      	0x53455459425f
    3050:	2029                	jal	305a <_erodata+0x2f1a>
    3052:	6f66207b          	0x6f66207b
    3056:	2072                	fld	ft0,280(sp)
    3058:	6928                	flw	fa0,80(a0)
    305a:	303d                	jal	2888 <_erodata+0x2748>
    305c:	3c69203b          	0x3c69203b
    3060:	3b746e63          	bltu	s0,s7,341c <_erodata+0x32dc>
    3064:	6920                	flw	fs0,80(a0)
    3066:	20292b2b          	0x20292b2b
    306a:	7562207b          	0x7562207b
    306e:	5b66                	lw	s6,120(sp)
    3070:	5d69                	li	s10,-6
    3072:	3d20                	fld	fs0,120(a0)
    3074:	5f20                	lw	s0,120(a4)
    3076:	5f727363          	bgeu	tp,s7,365c <_erodata+0x351c>
    307a:	6472                	flw	fs0,28(sp)
    307c:	6128                	flw	fa0,64(a0)
    307e:	202c                	fld	fa1,64(s0)
    3080:	657a6973          	csrrsi	s2,0x657,20
    3084:	6228666f          	jal	a2,896a6 <_erodata+0x89566>
    3088:	6675                	lui	a2,0x1d
    308a:	295d305b          	0x295d305b
    308e:	3b29                	jal	2da8 <_erodata+0x2c68>
    3090:	6120                	flw	fs0,64(a0)
    3092:	2b20                	fld	fs0,80(a4)
    3094:	203d                	jal	30c2 <_erodata+0x2f82>
    3096:	5f525343          	fmadd.q	ft6,ft4,fs5,fa1,unknown
    309a:	5346464f          	fnmadd.d	fa2,fa2,fs4,fa0,rmm
    309e:	5445                	li	s0,-15
    30a0:	425f 5459 5345      	0x53455459425f
    30a6:	2a20                	fld	fs0,80(a2)
    30a8:	6e20                	flw	fs0,88(a2)
    30aa:	6d75                	lui	s10,0x1d
    30ac:	735f 6275 6572      	0x65726275735f
    30b2:	73287367          	0x73287367
    30b6:	7a69                	lui	s4,0xffffa
    30b8:	6f65                	lui	t5,0x19
    30ba:	2866                	fld	fa6,88(sp)
    30bc:	7562                	flw	fa0,56(sp)
    30be:	5b66                	lw	s6,120(sp)
    30c0:	5d30                	lw	a2,120(a0)
    30c2:	2929                	jal	34dc <_erodata+0x339c>
    30c4:	207d203b          	0x207d203b
    30c8:	207d                	jal	3176 <_erodata+0x3036>
    30ca:	6c65                	lui	s8,0x19
    30cc:	7b206573          	csrrsi	a0,dscratch0,0
    30d0:	6e20                	flw	fs0,88(a2)
    30d2:	72627573          	csrrci	a0,0x726,4
    30d6:	6765                	lui	a4,0x19
    30d8:	203d2073          	csrs	0x203,s10
    30dc:	756e                	flw	fa0,248(sp)
    30de:	5f6d                	li	t5,-5
    30e0:	72627573          	csrrci	a0,0x726,4
    30e4:	6765                	lui	a4,0x19
    30e6:	69732873          	csrrs	a6,0x697,t1
    30ea:	657a                	flw	fa0,156(sp)
    30ec:	6228666f          	jal	a2,8970e <_erodata+0x895ce>
    30f0:	6675                	lui	a2,0x1d
    30f2:	295d305b          	0x295d305b
    30f6:	2a20                	fld	fs0,80(a2)
    30f8:	6320                	flw	fs0,64(a4)
    30fa:	746e                	flw	fs0,248(sp)
    30fc:	3b29                	jal	2e16 <_erodata+0x2cd6>
    30fe:	6e20                	flw	fs0,88(a2)
    3100:	65627573          	csrrci	a0,0x656,4
    3104:	656c                	flw	fa1,76(a0)
    3106:	736d                	lui	t1,0xffffb
    3108:	3d20                	fld	fs0,120(a0)
    310a:	4320                	lw	s0,64(a4)
    310c:	445f5253          	0x445f5253
    3110:	59425f57          	0x59425f57
    3114:	4554                	lw	a3,12(a0)
    3116:	202f2053          	fsgnjx.s	ft0,ft10,ft2
    311a:	657a6973          	csrrsi	s2,0x657,20
    311e:	6228666f          	jal	a2,89740 <_erodata+0x89600>
    3122:	6675                	lui	a2,0x1d
    3124:	295d305b          	0x295d305b
    3128:	666f203b          	0x666f203b
    312c:	7366                	flw	ft6,120(sp)
    312e:	7465                	lui	s0,0xffff9
    3130:	3d20                	fld	fs0,120(a0)
    3132:	6e20                	flw	fs0,88(a2)
    3134:	72627573          	csrrci	a0,0x726,4
    3138:	6765                	lui	a4,0x19
    313a:	736e2a73          	csrrs	s4,0x736,t3
    313e:	6275                	lui	tp,0x1d
    3140:	6c65                	lui	s8,0x19
    3142:	6d65                	lui	s10,0x19
    3144:	202d2073          	csrs	0x202,s10
    3148:	3b746e63          	bltu	s0,s7,3504 <_erodata+0x33c4>
    314c:	6620                	flw	fs0,72(a2)
    314e:	2820726f          	jal	tp,a3d0 <_erodata+0xa290>
    3152:	3d69                	jal	2fec <_erodata+0x2eac>
    3154:	3b30                	fld	fa2,112(a4)
    3156:	6920                	flw	fs0,80(a0)
    3158:	6e3c                	flw	fa5,88(a2)
    315a:	72627573          	csrrci	a0,0x726,4
    315e:	6765                	lui	a4,0x19
    3160:	69203b73          	csrrc	s6,0x692,zero
    3164:	20292b2b          	0x20292b2b
    3168:	2072207b          	0x2072207b
    316c:	203d                	jal	319a <_erodata+0x305a>
    316e:	5f727363          	bgeu	tp,s7,3754 <_erodata+0x3614>
    3172:	6572                	flw	fa0,28(sp)
    3174:	6461                	lui	s0,0x18
    3176:	735f 6d69 6c70      	0x6c706d69735f
    317c:	2865                	jal	3234 <_erodata+0x30f4>
    317e:	2961                	jal	3616 <_erodata+0x34d6>
    3180:	6f66203b          	0x6f66203b
    3184:	2072                	fld	ft0,280(sp)
    3186:	6a28                	flw	fa0,80(a2)
    3188:	203d                	jal	31b6 <_erodata+0x3076>
    318a:	736e                	flw	ft6,248(sp)
    318c:	6275                	lui	tp,0x1d
    318e:	6c65                	lui	s8,0x19
    3190:	6d65                	lui	s10,0x19
    3192:	202d2073          	csrs	0x202,s10
    3196:	3b31                	jal	2eb2 <_erodata+0x2d72>
    3198:	6a20                	flw	fs0,80(a2)
    319a:	3e20                	fld	fs0,120(a2)
    319c:	203d                	jal	31ca <_erodata+0x308a>
    319e:	3b30                	fld	fa2,112(a4)
    31a0:	6a20                	flw	fs0,80(a2)
    31a2:	2d2d                	jal	37dc <_erodata+0x369c>
    31a4:	2029                	jal	31ae <_erodata+0x306e>
    31a6:	6669207b          	0x6669207b
    31aa:	2820                	fld	fs0,80(s0)
    31ac:	6928                	flw	fa0,80(a0)
    31ae:	2a20                	fld	fs0,80(a2)
    31b0:	6e20                	flw	fs0,88(a2)
    31b2:	65627573          	csrrci	a0,0x656,4
    31b6:	656c                	flw	fa1,76(a0)
    31b8:	736d                	lui	t1,0xffffb
    31ba:	2b20                	fld	fs0,80(a4)
    31bc:	6a20                	flw	fs0,80(a2)
    31be:	2d20                	fld	fs0,88(a0)
    31c0:	6f20                	flw	fs0,88(a4)
    31c2:	6666                	flw	fa2,88(sp)
    31c4:	29746573          	csrrsi	a0,0x297,8
    31c8:	3e20                	fld	fs0,120(a2)
    31ca:	203d                	jal	31f8 <_erodata+0x30b8>
    31cc:	2930                	fld	fa2,80(a0)
    31ce:	7b20                	flw	fs0,112(a4)
    31d0:	6220                	flw	fs0,64(a2)
    31d2:	6675                	lui	a2,0x1d
    31d4:	2a20695b          	0x2a20695b
    31d8:	6e20                	flw	fs0,88(a2)
    31da:	65627573          	csrrci	a0,0x656,4
    31de:	656c                	flw	fa1,76(a0)
    31e0:	736d                	lui	t1,0xffffb
    31e2:	2b20                	fld	fs0,80(a4)
    31e4:	6a20                	flw	fs0,80(a2)
    31e6:	2d20                	fld	fs0,88(a0)
    31e8:	6f20                	flw	fs0,88(a4)
    31ea:	6666                	flw	fa2,88(sp)
    31ec:	5d746573          	csrrsi	a0,0x5d7,8
    31f0:	3d20                	fld	fs0,120(a0)
    31f2:	7220                	flw	fs0,96(a2)
    31f4:	2072203b          	0x2072203b
    31f8:	3e3e                	fld	ft8,488(sp)
    31fa:	203d                	jal	3228 <_erodata+0x30e8>
    31fc:	657a6973          	csrrsi	s2,0x657,20
    3200:	6228666f          	jal	a2,89822 <_erodata+0x896e2>
    3204:	6675                	lui	a2,0x1d
    3206:	295d305b          	0x295d305b
    320a:	2a20                	fld	fs0,80(a2)
    320c:	3820                	fld	fs0,112(s0)
    320e:	207d203b          	0x207d203b
    3212:	207d                	jal	32c0 <_erodata+0x3180>
    3214:	2061                	jal	329c <_erodata+0x315c>
    3216:	43203d2b          	0x43203d2b
    321a:	4f5f5253          	0x4f5f5253
    321e:	4646                	lw	a2,80(sp)
    3220:	5f544553          	0x5f544553
    3224:	5942                	lw	s2,48(sp)
    3226:	4554                	lw	a3,12(a0)
    3228:	7d203b53          	0x7d203b53
    322c:	7d20                	flw	fs0,120(a0)
    322e:	7d20                	flw	fs0,120(a0)
    3230:	5f00                	lw	s0,56(a4)
    3232:	485f 5641 5f45      	0x5f455641485f
    3238:	5542                	lw	a0,48(sp)
    323a:	4c49                	li	s8,18
    323c:	4954                	lw	a3,20(a0)
    323e:	5f4e                	lw	t5,240(sp)
    3240:	5349                	li	t1,-14
    3242:	414e                	lw	sp,208(sp)
    3244:	204e                	fld	ft0,208(sp)
    3246:	0031                	c.nop	12
    3248:	5f5f 4148 4556      	0x455641485f5f
    324e:	425f 4955 544c      	0x544c4955425f
    3254:	4e49                	li	t3,18
    3256:	435f 504f 5359      	0x5359504f435f
    325c:	4749                	li	a4,18
    325e:	204e                	fld	ft0,208(sp)
    3260:	0031                	c.nop	12
    3262:	5f5f 444c 4c42      	0x4c42444c5f5f
    3268:	485f 5341 495f      	0x495f5341485f
    326e:	464e                	lw	a2,208(sp)
    3270:	4e49                	li	t3,18
    3272:	5449                	li	s0,-14
    3274:	5f59                	li	t5,-10
    3276:	205f 0031 5f5f      	0x5f5f0031205f
    327c:	5f434347          	fmsub.q	ft6,ft6,fs4,fa1,rmm
    3280:	4549                	li	a0,18
    3282:	35355f43          	0x35355f43
    3286:	5f39                	li	t5,-18
    3288:	504d4f43          	fmadd.s	ft10,fs10,ft4,fa0,rmm
    328c:	454c                	lw	a1,12(a0)
    328e:	2058                	fld	fa4,128(s0)
    3290:	0030                	addi	a2,sp,8
    3292:	5f5f 4955 544e      	0x544e49555f5f
    3298:	4d5f3233          	0x4d5f3233
    329c:	5841                	li	a6,-16
    329e:	5f5f 3020 6678      	0x667830205f5f
    32a4:	6666                	flw	fa2,88(sp)
    32a6:	6666                	flw	fa2,88(sp)
    32a8:	6666                	flw	fa2,88(sp)
    32aa:	5566                	lw	a0,120(sp)
    32ac:	004c                	addi	a1,sp,4
    32ae:	5f5f 666f 7366      	0x7366666f5f5f
    32b4:	7465                	lui	s0,0xffff9
    32b6:	7428666f          	jal	a2,899f8 <_erodata+0x898b8>
    32ba:	7079                	c.lui	zero,0xffffe
    32bc:	2c65                	jal	3574 <_erodata+0x3434>
    32be:	6966                	flw	fs2,88(sp)
    32c0:	6c65                	lui	s8,0x19
    32c2:	2964                	fld	fs1,208(a0)
    32c4:	6f20                	flw	fs0,88(a4)
    32c6:	6666                	flw	fa2,88(sp)
    32c8:	6f746573          	csrrsi	a0,0x6f7,8
    32cc:	2866                	fld	fa6,88(sp)
    32ce:	7974                	flw	fa3,116(a0)
    32d0:	6570                	flw	fa2,76(a0)
    32d2:	202c                	fld	fa1,64(s0)
    32d4:	6966                	flw	fs2,88(sp)
    32d6:	6c65                	lui	s8,0x19
    32d8:	2964                	fld	fs1,208(a0)
    32da:	4300                	lw	s0,0(a4)
    32dc:	555f5253          	0x555f5253
    32e0:	5241                	li	tp,-16
    32e2:	5f54                	lw	a3,60(a4)
    32e4:	5645                	li	a2,-15
    32e6:	535f 4154 5554      	0x55544154535f
    32ec:	44415f53          	0x44415f53
    32f0:	5244                	lw	s1,36(a2)
    32f2:	2820                	fld	fs0,80(s0)
    32f4:	5f525343          	fmadd.q	ft6,ft4,fs5,fa1,unknown
    32f8:	4142                	lw	sp,16(sp)
    32fa:	2b204553          	0x2b204553
    32fe:	3020                	fld	fs0,96(s0)
    3300:	6378                	flw	fa4,68(a4)
    3302:	294c                	fld	fa1,144(a0)
    3304:	5f00                	lw	s0,56(a4)
    3306:	4c5f 4244 5f4c      	0x5f4c42444c5f
    330c:	4f4e                	lw	t5,208(sp)
    330e:	4d52                	lw	s10,20(sp)
    3310:	4d5f 5841 5f5f      	0x5f5f58414d5f
    3316:	3120                	fld	fs0,96(a0)
    3318:	312e                	fld	ft2,232(sp)
    331a:	3938                	fld	fa4,112(a0)
    331c:	34313337          	lui	t1,0x34313
    3320:	3539                	jal	312e <_erodata+0x2fee>
    3322:	32373533          	0x32373533
    3326:	36373133          	0x36373133
    332a:	3035                	jal	2b56 <_erodata+0x2a16>
    332c:	3538                	fld	fa4,104(a0)
    332e:	33393537          	lui	a0,0x33393
    3332:	3632                	fld	fa2,296(sp)
    3334:	3236                	fld	ft4,360(sp)
    3336:	3038                	fld	fa4,96(s0)
    3338:	3730                	fld	fa2,104(a4)
    333a:	3230                	fld	fa2,96(a2)
    333c:	2b65                	jal	38f4 <_erodata+0x37b4>
    333e:	3934                	fld	fa3,112(a0)
    3340:	004c3233          	sltu	tp,s8,tp
    3344:	5f5f 6573 7463      	0x746365735f5f
    334a:	6f69                	lui	t5,0x1a
    334c:	286e                	fld	fa6,216(sp)
    334e:	2978                	fld	fa4,208(a0)
    3350:	5f20                	lw	s0,120(a4)
    3352:	615f 7474 6972      	0x69727474615f
    3358:	7562                	flw	fa0,56(sp)
    335a:	6574                	flw	fa3,76(a0)
    335c:	5f5f 2828 5f5f      	0x5f5f28285f5f
    3362:	74636573          	csrrsi	a0,0x746,6
    3366:	6f69                	lui	t5,0x1a
    3368:	5f6e                	lw	t5,248(sp)
    336a:	285f 2978 2929      	0x29292978285f
    3370:	5f00                	lw	s0,56(a4)
    3372:	4e49                	li	t3,18
    3374:	3354                	fld	fa3,160(a4)
    3376:	5f32                	lw	t5,44(sp)
    3378:	5f54                	lw	a3,60(a4)
    337a:	4544                	lw	s1,12(a0)
    337c:	52414c43          	fmadd.d	fs8,ft2,ft4,fa0,rmm
    3380:	4445                	li	s0,17
    3382:	0020                	addi	s0,sp,8
    3384:	5f5f 4953 455a      	0x455a49535f5f
    338a:	575f464f          	fnmadd.q	fa2,ft10,fs5,fa0,rmm
    338e:	52414843          	fmadd.d	fa6,ft2,ft4,fa0,rmm
    3392:	545f 5f5f 3420      	0x34205f5f545f
    3398:	5f00                	lw	s0,56(a4)
    339a:	465f 544c 3231      	0x3231544c465f
    33a0:	5f38                	lw	a4,120(a4)
    33a2:	494d                	li	s2,19
    33a4:	5f4e                	lw	t5,240(sp)
    33a6:	3031                	jal	2bb2 <_erodata+0x2a72>
    33a8:	455f 5058 5f5f      	0x5f5f5058455f
    33ae:	2820                	fld	fs0,80(s0)
    33b0:	342d                	jal	2dda <_erodata+0x2c9a>
    33b2:	3339                	jal	30c0 <_erodata+0x2f80>
    33b4:	2931                	jal	37d0 <_erodata+0x3690>
    33b6:	5f00                	lw	s0,56(a4)
    33b8:	465f 4f4c 5441      	0x54414f4c465f
    33be:	575f 524f 5f44      	0x5f44524f575f
    33c4:	4544524f          	0x4544524f
    33c8:	5f52                	lw	t5,52(sp)
    33ca:	205f 5f5f 524f      	0x524f5f5f205f
    33d0:	4544                	lw	s1,12(a0)
    33d2:	5f52                	lw	t5,52(sp)
    33d4:	494c                	lw	a1,20(a0)
    33d6:	5454                	lw	a3,44(s0)
    33d8:	454c                	lw	a1,12(a0)
    33da:	455f 444e 4149      	0x4149444e455f
    33e0:	5f4e                	lw	t5,240(sp)
    33e2:	005f 5f5f 4953      	0x49535f5f005f
    33e8:	455a                	lw	a0,148(sp)
    33ea:	575f 4449 4854      	0x48544449575f
    33f0:	5f5f 3320 0032      	0x3233205f5f
    33f6:	5f5f 4c46 3354      	0x33544c465f5f
    33fc:	5f32                	lw	t5,44(sp)
    33fe:	4544                	lw	s1,12(a0)
    3400:	4f4e                	lw	t5,208(sp)
    3402:	4d52                	lw	s10,20(sp)
    3404:	4d5f 4e49 5f5f      	0x5f5f4e494d5f
    340a:	3120                	fld	fs0,96(a0)
    340c:	342e                	fld	fs0,232(sp)
    340e:	3130                	fld	fa2,96(a0)
    3410:	3932                	fld	fs2,296(sp)
    3412:	3438                	fld	fa4,104(s0)
    3414:	3436                	fld	fs0,360(sp)
    3416:	38343233          	0x38343233
    341a:	3731                	jal	3326 <_erodata+0x31e6>
    341c:	3730                	fld	fa2,104(a4)
    341e:	3930                	fld	fa2,112(a0)
    3420:	3332                	fld	ft6,296(sp)
    3422:	35393237          	lui	tp,0x35393
    3426:	3338                	fld	fa4,96(a4)
    3428:	3832                	fld	fa6,296(sp)
    342a:	3939                	jal	3048 <_erodata+0x2f08>
    342c:	3631                	jal	2f38 <_erodata+0x2df8>
    342e:	3331                	jal	313a <_erodata+0x2ffa>
    3430:	2d65                	jal	3ae8 <_erodata+0x39a8>
    3432:	3534                	fld	fa3,104(a0)
    3434:	3346                	fld	ft6,112(sp)
    3436:	0032                	c.slli	zero,0xc
    3438:	5f5f 4953 5f47      	0x5f4749535f5f
    343e:	5441                	li	s0,-16
    3440:	43494d4f          	fnmadd.d	fs10,fs2,fs4,fs0,rmm
    3444:	4d5f 4e49 5f5f      	0x5f5f4e494d5f
    344a:	2820                	fld	fs0,80(s0)
    344c:	5f2d                	li	t5,-21
    344e:	535f 4749 415f      	0x415f4749535f
    3454:	4f54                	lw	a3,28(a4)
    3456:	494d                	li	s2,19
    3458:	414d5f43          	fmadd.s	ft10,fs10,fs4,fs0,unknown
    345c:	5f58                	lw	a4,60(a4)
    345e:	205f 202d 2931      	0x2931202d205f
    3464:	5f00                	lw	s0,56(a4)
    3466:	4d5f 5f42 5845      	0x58455f424d5f
    346c:	4554                	lw	a3,12(a0)
    346e:	444e                	lw	s0,208(sp)
    3470:	4445                	li	s0,17
    3472:	435f 4148 5352      	0x53524148435f
    3478:	5445                	li	s0,-15
    347a:	4e415f53          	0x4e415f53
    347e:	0059                	c.nop	22
    3480:	5f525343          	fmadd.q	ft6,ft4,fs5,fa1,unknown
    3484:	4155                	li	sp,21
    3486:	5452                	lw	s0,52(sp)
    3488:	455f 5f56 4550      	0x45505f56455f
    348e:	444e                	lw	s0,208(sp)
    3490:	4e49                	li	t3,18
    3492:	58545f47          	fmsub.s	ft10,fs0,ft5,fa1,unknown
    3496:	535f 5a49 2045      	0x20455a49535f
    349c:	0031                	c.nop	12
    349e:	5f525343          	fmadd.q	ft6,ft4,fs5,fa1,unknown
    34a2:	4155                	li	sp,21
    34a4:	5452                	lw	s0,52(sp)
    34a6:	455f 5f56 5453      	0x54535f56455f
    34ac:	5441                	li	s0,-16
    34ae:	5355                	li	t1,-11
    34b0:	545f 5f58 4953      	0x49535f58545f
    34b6:	455a                	lw	a0,148(sp)
    34b8:	3120                	fld	fs0,96(a0)
    34ba:	5f00                	lw	s0,56(a4)
    34bc:	4c5f 4e4f 5f47      	0x5f474e4f4c5f
    34c2:	54444957          	0x54444957
    34c6:	5f48                	lw	a0,60(a4)
    34c8:	205f 3233 5f00      	0x5f003233205f
    34ce:	415f 4f54 494d      	0x494d4f54415f
    34d4:	43415f43          	fmadd.d	ft10,ft2,fs4,fs0,unknown
    34d8:	5551                	li	a0,-12
    34da:	5249                	li	tp,-14
    34dc:	2045                	jal	357c <_erodata+0x343c>
    34de:	0032                	c.slli	zero,0xc
    34e0:	5f5f 4843 5241      	0x524148435f5f
    34e6:	545f3233          	0x545f3233
    34ea:	5059                	c.li	zero,-10
    34ec:	5f45                	li	t5,-15
    34ee:	205f 6f6c 676e      	0x676e6f6c205f
    34f4:	7520                	flw	fs0,104(a0)
    34f6:	736e                	flw	ft6,248(sp)
    34f8:	6769                	lui	a4,0x1a
    34fa:	656e                	flw	fa0,216(sp)
    34fc:	2064                	fld	fs1,192(s0)
    34fe:	6e69                	lui	t3,0x1a
    3500:	0074                	addi	a3,sp,12
    3502:	5f5f 4f50 4953      	0x49534f505f5f
    3508:	5f58                	lw	a4,60(a4)
    350a:	4956                	lw	s2,84(sp)
    350c:	4c424953          	0x4c424953
    3510:	2045                	jal	35b0 <_erodata+0x3470>
    3512:	3032                	fld	ft0,296(sp)
    3514:	3432                	fld	fs0,296(sp)
    3516:	3530                	fld	fa2,104(a0)
    3518:	4900                	lw	s0,16(a0)
    351a:	544e                	lw	s0,240(sp)
    351c:	414d                	li	sp,19
    351e:	5f58                	lw	a4,60(a4)
    3520:	29782843          	fmadd.s	fa6,fa6,fs7,ft5,rdn
    3524:	5f20                	lw	s0,120(a4)
    3526:	495f 544e 414d      	0x414d544e495f
    352c:	5f58                	lw	a4,60(a4)
    352e:	29782843          	fmadd.s	fa6,fa6,fs7,ft5,rdn
    3532:	4d00                	lw	s0,24(a0)
    3534:	504d                	c.li	zero,-13
    3536:	5254                	lw	a3,36(a2)
    3538:	6128                	flw	fa0,64(a0)
    353a:	2029                	jal	3544 <_erodata+0x3404>
    353c:	2a28                	fld	fa0,80(a2)
    353e:	2828                	fld	fa0,80(s0)
    3540:	6f76                	flw	ft10,92(sp)
    3542:	616c                	flw	fa1,68(a0)
    3544:	6974                	flw	fa3,84(a0)
    3546:	656c                	flw	fa1,76(a0)
    3548:	7520                	flw	fs0,104(a0)
    354a:	6e69                	lui	t3,0x1a
    354c:	3374                	fld	fa3,224(a4)
    354e:	5f32                	lw	t5,44(sp)
    3550:	2074                	fld	fa3,192(s0)
    3552:	292a                	fld	fs2,136(sp)
    3554:	6128                	flw	fa0,64(a0)
    3556:	2929                	jal	3970 <_erodata+0x3830>
    3558:	0029                	c.nop	10
    355a:	5f5f 6c65 6469      	0x64696c655f5f
    3560:	6261                	lui	tp,0x18
    3562:	656c                	flw	fa1,76(a0)
    3564:	695f 6c6e 6e69      	0x6e696c6e695f
    356a:	2065                	jal	3612 <_erodata+0x34d2>
    356c:	74617473          	csrrci	s0,0x746,2
    3570:	6369                	lui	t1,0x1a
    3572:	5f20                	lw	s0,120(a4)
    3574:	695f 6c6e 6e69      	0x6e696c6e695f
    357a:	0065                	c.nop	25
    357c:	5f5f 6e69 5f74      	0x5f746e695f5f
    3582:	6166                	flw	ft2,88(sp)
    3584:	36317473          	csrrci	s0,0x363,2
    3588:	745f 645f 6665      	0x6665645f745f
    358e:	6e69                	lui	t3,0x1a
    3590:	6465                	lui	s0,0x19
    3592:	3120                	fld	fs0,96(a0)
    3594:	5f00                	lw	s0,56(a4)
    3596:	615f 696c 6e67      	0x6e67696c615f
    359c:	755f 2870 2c78      	0x2c782870755f
    35a2:	2979                	jal	3a40 <_erodata+0x3900>
    35a4:	5f20                	lw	s0,120(a4)
    35a6:	625f 6975 746c      	0x746c6975625f
    35ac:	6e69                	lui	t3,0x1a
    35ae:	615f 696c 6e67      	0x6e67696c615f
    35b4:	755f 2870 2c78      	0x2c782870755f
    35ba:	7920                	flw	fs0,112(a0)
    35bc:	0029                	c.nop	10
    35be:	4955                	li	s2,21
    35c0:	544e                	lw	s0,240(sp)
    35c2:	465f 5341 3654      	0x36545341465f
    35c8:	5f34                	lw	a3,120(a4)
    35ca:	414d                	li	sp,19
    35cc:	2058                	fld	fa4,128(s0)
    35ce:	5f28                	lw	a0,120(a4)
    35d0:	555f 4e49 5f54      	0x5f544e49555f
    35d6:	4146                	lw	sp,80(sp)
    35d8:	34365453          	0x34365453
    35dc:	4d5f 5841 5f5f      	0x5f5f58414d5f
    35e2:	0029                	c.nop	10
    35e4:	5f5f 4955 544e      	0x544e49555f5f
    35ea:	4c5f 4145 5453      	0x545341454c5f
    35f0:	545f3233          	0x545f3233
    35f4:	5059                	c.li	zero,-10
    35f6:	5f45                	li	t5,-15
    35f8:	205f 6f6c 676e      	0x676e6f6c205f
    35fe:	7520                	flw	fs0,104(a0)
    3600:	736e                	flw	ft6,248(sp)
    3602:	6769                	lui	a4,0x1a
    3604:	656e                	flw	fa0,216(sp)
    3606:	2064                	fld	fs1,192(s0)
    3608:	6e69                	lui	t3,0x1a
    360a:	0074                	addi	a3,sp,12
    360c:	5f525343          	fmadd.q	ft6,ft4,fs5,fa1,unknown
    3610:	5744                	lw	s1,44(a4)
    3612:	425f 5459 5345      	0x53455459425f
    3618:	2820                	fld	fs0,80(s0)
    361a:	464e4f43          	fmadd.q	ft10,ft8,ft4,fs0,rmm
    361e:	4749                	li	a4,18
    3620:	435f 5253 445f      	0x445f5253435f
    3626:	5441                	li	s0,-16
    3628:	5f41                	li	t5,-16
    362a:	54444957          	0x54444957
    362e:	2f48                	fld	fa0,152(a4)
    3630:	2938                	fld	fa4,80(a0)
    3632:	5f00                	lw	s0,56(a4)
    3634:	555f 4e49 4d54      	0x4d544e49555f
    363a:	5841                	li	a6,-16
    363c:	545f 5059 5f45      	0x5f455059545f
    3642:	205f 6f6c 676e      	0x676e6f6c205f
    3648:	6c20                	flw	fs0,88(s0)
    364a:	20676e6f          	jal	t3,79850 <_erodata+0x79710>
    364e:	6e75                	lui	t3,0x1d
    3650:	6e676973          	csrrsi	s2,0x6e6,14
    3654:	6465                	lui	s0,0x19
    3656:	6920                	flw	fs0,80(a0)
    3658:	746e                	flw	fs0,248(sp)
    365a:	4300                	lw	s0,0(a4)
    365c:	555f5253          	0x555f5253
    3660:	5241                	li	tp,-16
    3662:	5f54                	lw	a3,60(a4)
    3664:	5852                	lw	a6,52(sp)
    3666:	5546                	lw	a0,112(sp)
    3668:	4c4c                	lw	a1,28(s0)
    366a:	415f 4444 2052      	0x20524444415f
    3670:	4328                	lw	a0,64(a4)
    3672:	425f5253          	0x425f5253
    3676:	5341                	li	t1,-16
    3678:	2045                	jal	3718 <_erodata+0x35d8>
    367a:	7830202b          	0x7830202b
    367e:	6331                	lui	t1,0xc
    3680:	294c                	fld	fa1,144(a0)
    3682:	5f00                	lw	s0,56(a4)
    3684:	485f 5641 5f45      	0x5f455641485f
    368a:	5542                	lw	a0,48(sp)
    368c:	4c49                	li	s8,18
    368e:	4954                	lw	a3,20(a0)
    3690:	5f4e                	lw	t5,240(sp)
    3692:	4c5a5443          	0x4c5a5443
    3696:	204c                	fld	fa1,128(s0)
    3698:	0031                	c.nop	12
    369a:	5f5f 4953 5f47      	0x5f4749535f5f
    36a0:	5441                	li	s0,-16
    36a2:	43494d4f          	fnmadd.d	fs10,fs2,fs4,fs0,rmm
    36a6:	575f 4449 4854      	0x48544449575f
    36ac:	5f5f 3320 0032      	0x3233205f5f
    36b2:	464e4f43          	fmadd.q	ft10,ft8,ft4,fs0,rmm
    36b6:	4749                	li	a4,18
    36b8:	425f 5355 445f      	0x445f5355425f
    36be:	5441                	li	s0,-16
    36c0:	5f41                	li	t5,-16
    36c2:	54444957          	0x54444957
    36c6:	2048                	fld	fa0,128(s0)
    36c8:	5f003233          	0x5f003233
    36cc:	755f 6e69 3374      	0x33746e69755f
    36d2:	5f32                	lw	t5,44(sp)
    36d4:	0074                	addi	a3,sp,12
    36d6:	5f5f 4e47 4355      	0x43554e475f5f
    36dc:	505f 4552 4552      	0x45524552505f
    36e2:	5f51                	li	t5,-12
    36e4:	285f 616d 6d2c      	0x6d2c616d285f
    36ea:	2969                	jal	3b84 <_erodata+0x3a44>
    36ec:	5f20                	lw	s0,120(a4)
    36ee:	475f 554e 5f43      	0x5f43554e475f
    36f4:	5250                	lw	a2,36(a2)
    36f6:	5245                	li	tp,-15
    36f8:	5145                	li	sp,-15
    36fa:	6d28                	flw	fa0,88(a0)
    36fc:	2c61                	jal	3994 <_erodata+0x3854>
    36fe:	6d20                	flw	fs0,88(a0)
    3700:	2969                	jal	3b9a <_erodata+0x3a5a>
    3702:	5f00                	lw	s0,56(a4)
    3704:	465f 5341 3854      	0x38545341465f
    370a:	0020                	addi	s0,sp,8
    370c:	5f5f 4853 5452      	0x545248535f5f
    3712:	4d5f 5841 5f5f      	0x5f5f58414d5f
    3718:	3020                	fld	fs0,96(s0)
    371a:	3778                	fld	fa4,232(a4)
    371c:	6666                	flw	fa2,88(sp)
    371e:	0066                	c.slli	zero,0x19
    3720:	5f5f 6564 7270      	0x727065645f5f
    3726:	6365                	lui	t1,0x19
    3728:	7461                	lui	s0,0xffff8
    372a:	6465                	lui	s0,0x19
    372c:	6d5f 6d28 2029      	0x20296d286d5f
    3732:	5f5f 7461 7274      	0x727474615f5f
    3738:	6269                	lui	tp,0x1a
    373a:	7475                	lui	s0,0xffffd
    373c:	5f65                	li	t5,-7
    373e:	285f 5f28 645f      	0x645f5f28285f
    3744:	7065                	c.lui	zero,0xffff9
    3746:	6572                	flw	fa0,28(sp)
    3748:	65746163          	bltu	s0,s7,3d8a <_erodata+0x3c4a>
    374c:	5f64                	lw	s1,124(a4)
    374e:	285f 296d 2929      	0x2929296d285f
    3754:	5f00                	lw	s0,56(a4)
    3756:	4f5f 4452 5245      	0x524544524f5f
    375c:	505f 5044 455f      	0x455f5044505f
    3762:	444e                	lw	s0,208(sp)
    3764:	4149                	li	sp,18
    3766:	5f4e                	lw	t5,240(sp)
    3768:	205f 3433 3231      	0x32313433205f
    376e:	5f00                	lw	s0,56(a4)
    3770:	465f 544c 445f      	0x445f544c465f
    3776:	4345                	li	t1,17
    3778:	4d49                	li	s10,18
    377a:	4c41                	li	s8,16
    377c:	445f 4749 5f5f      	0x5f5f4749445f
    3782:	3920                	fld	fs0,112(a0)
    3784:	5f00                	lw	s0,56(a4)
    3786:	495f 544e 3233      	0x3233544e495f
    378c:	4d5f 5841 5f5f      	0x5f5f58414d5f
    3792:	3020                	fld	fs0,96(s0)
    3794:	3778                	fld	fa4,232(a4)
    3796:	6666                	flw	fa2,88(sp)
    3798:	6666                	flw	fa2,88(sp)
    379a:	6666                	flw	fa2,88(sp)
    379c:	4c66                	lw	s8,88(sp)
    379e:	5f00                	lw	s0,56(a4)
    37a0:	615f 6c6c 636f      	0x636f6c6c615f
    37a6:	735f 7a69 3265      	0x32657a69735f
    37ac:	6128                	flw	fa0,64(a0)
    37ae:	622c                	flw	fa1,64(a2)
    37b0:	2029                	jal	37ba <_erodata+0x367a>
    37b2:	5f5f 7461 7274      	0x727474615f5f
    37b8:	6269                	lui	tp,0x1a
    37ba:	7475                	lui	s0,0xffffd
    37bc:	5f65                	li	t5,-7
    37be:	205f 2828 5f5f      	0x5f5f2828205f
    37c4:	6c61                	lui	s8,0x18
    37c6:	6f6c                	flw	fa1,92(a4)
    37c8:	69735f63          	bge	t1,s7,3e66 <_erodata+0x3d26>
    37cc:	657a                	flw	fa0,156(sp)
    37ce:	5f5f 6128 622c      	0x622c61285f5f
    37d4:	2929                	jal	3bee <_erodata+0x3aae>
    37d6:	0029                	c.nop	10
    37d8:	5f5f 444c 4c42      	0x4c42444c5f5f
    37de:	4d5f 4e49 455f      	0x455f4e494d5f
    37e4:	5058                	lw	a4,36(s0)
    37e6:	5f5f 2820 312d      	0x312d28205f5f
    37ec:	3336                	fld	ft6,360(sp)
    37ee:	3138                	fld	fa4,96(a0)
    37f0:	0029                	c.nop	10
    37f2:	5f5f 4957 544e      	0x544e49575f5f
    37f8:	575f 4449 4854      	0x48544449575f
    37fe:	5f5f 3320 0032      	0x3233205f5f
    3804:	4955                	li	s2,21
    3806:	544e                	lw	s0,240(sp)
    3808:	465f 5341 3354      	0x33545341465f
    380e:	5f32                	lw	t5,44(sp)
    3810:	414d                	li	sp,19
    3812:	2058                	fld	fa4,128(s0)
    3814:	5f28                	lw	a0,120(a4)
    3816:	555f 4e49 5f54      	0x5f544e49555f
    381c:	4146                	lw	sp,80(sp)
    381e:	32335453          	0x32335453
    3822:	4d5f 5841 5f5f      	0x5f5f58414d5f
    3828:	0029                	c.nop	10
    382a:	5f5f 4c46 3654      	0x36544c465f5f
    3830:	5834                	lw	a3,112(s0)
    3832:	4d5f 4e49 5f5f      	0x5f5f4e494d5f
    3838:	3320                	fld	fs0,96(a4)
    383a:	332e                	fld	ft6,232(sp)
    383c:	3236                	fld	ft4,360(sp)
    383e:	3031                	jal	304a <_erodata+0x2f0a>
    3840:	33343133          	0x33343133
    3844:	3131                	jal	3450 <_erodata+0x3310>
    3846:	3032                	fld	ft0,296(sp)
    3848:	3339                	jal	3556 <_erodata+0x3416>
    384a:	3035                	jal	3076 <_erodata+0x2f36>
    384c:	3236                	fld	ft4,360(sp)
    384e:	3236                	fld	ft4,360(sp)
    3850:	3736                	fld	fa4,360(sp)
    3852:	37313837          	lui	a6,0x37313
    3856:	37313233          	0x37313233
    385a:	3235                	jal	3186 <_erodata+0x3046>
    385c:	3036                	fld	ft0,360(sp)
    385e:	2d65                	jal	3f16 <_erodata+0x3dd6>
    3860:	3934                	fld	fa3,112(a0)
    3862:	36463233          	0x36463233
    3866:	7834                	flw	fa3,112(s0)
    3868:	4300                	lw	s0,0(a4)
    386a:	555f5253          	0x555f5253
    386e:	5241                	li	tp,-16
    3870:	5f54                	lw	a3,60(a4)
    3872:	5852                	lw	a6,52(sp)
    3874:	4d45                	li	s10,17
    3876:	5450                	lw	a2,44(s0)
    3878:	5f59                	li	t5,-10
    387a:	4441                	li	s0,16
    387c:	5244                	lw	s1,36(a2)
    387e:	2820                	fld	fs0,80(s0)
    3880:	5f525343          	fmadd.q	ft6,ft4,fs5,fa1,unknown
    3884:	4142                	lw	sp,16(sp)
    3886:	2b204553          	0x2b204553
    388a:	3020                	fld	fs0,96(s0)
    388c:	3878                	fld	fa4,240(s0)
    388e:	294c                	fld	fa1,144(a0)
    3890:	5f00                	lw	s0,56(a4)
    3892:	415f 4654 4c49      	0x4c494654415f
    3898:	5f45                	li	t5,-15
    389a:	4956                	lw	s2,84(sp)
    389c:	4c424953          	0x4c424953
    38a0:	2045                	jal	3940 <_erodata+0x3800>
    38a2:	0031                	c.nop	12
    38a4:	5f5f 4c46 3354      	0x33544c465f5f
    38aa:	5f32                	lw	t5,44(sp)
    38ac:	5045                	c.li	zero,-15
    38ae:	4f4c4953          	0x4f4c4953
    38b2:	5f4e                	lw	t5,240(sp)
    38b4:	205f 2e31 3931      	0x39312e31205f
    38ba:	3032                	fld	ft0,296(sp)
    38bc:	3239                	jal	31ca <_erodata+0x308a>
    38be:	3938                	fld	fa4,112(a0)
    38c0:	3535                	jal	36ec <_erodata+0x35ac>
    38c2:	3730                	fld	fa2,104(a4)
    38c4:	3138                	fld	fa4,96(a0)
    38c6:	3532                	fld	fa0,296(sp)
    38c8:	3030                	fld	fa2,96(s0)
    38ca:	3030                	fld	fa2,96(s0)
    38cc:	3030                	fld	fa2,96(s0)
    38ce:	3030                	fld	fa2,96(s0)
    38d0:	3030                	fld	fa2,96(s0)
    38d2:	3030                	fld	fa2,96(s0)
    38d4:	3030                	fld	fa2,96(s0)
    38d6:	3030                	fld	fa2,96(s0)
    38d8:	3030                	fld	fa2,96(s0)
    38da:	6530                	flw	fa2,72(a0)
    38dc:	372d                	jal	3806 <_erodata+0x36c6>
    38de:	3346                	fld	ft6,112(sp)
    38e0:	0032                	c.slli	zero,0xc
    38e2:	5f5f 4152 444e      	0x444e41525f5f
    38e8:	4d5f 5841 5f00      	0x5f0058414d5f
    38ee:	585f 4953 565f      	0x565f4953585f
    38f4:	5349                	li	t1,-14
    38f6:	4249                	li	tp,18
    38f8:	454c                	lw	a1,12(a0)
    38fa:	3020                	fld	fs0,96(s0)
    38fc:	5f00                	lw	s0,56(a4)
    38fe:	495f 544e 4c5f      	0x4c5f544e495f
    3904:	4145                	li	sp,17
    3906:	34365453          	0x34365453
    390a:	575f 4449 4854      	0x48544449575f
    3910:	5f5f 3620 0034      	0x3436205f5f
    3916:	5f5f 4e49 3354      	0x33544e495f5f
    391c:	5f32                	lw	t5,44(sp)
    391e:	5954                	lw	a3,52(a0)
    3920:	4550                	lw	a2,12(a0)
    3922:	5f5f 6c20 6e6f      	0x6e6f6c205f5f
    3928:	6e692067          	0x6e692067
    392c:	0074                	addi	a3,sp,12
    392e:	5f5f 4c46 3354      	0x33544c465f5f
    3934:	5832                	lw	a6,44(sp)
    3936:	4d5f 4e49 315f      	0x315f4e494d5f
    393c:	5f30                	lw	a2,120(a4)
    393e:	5845                	li	a6,-15
    3940:	5f50                	lw	a2,60(a4)
    3942:	205f 2d28 3033      	0x30332d28205f
    3948:	57002937          	lui	s2,0x57002
    394c:	52414843          	fmadd.d	fa6,ft2,ft4,fa0,rmm
    3950:	4d5f 4e49 2820      	0x28204e494d5f
    3956:	5f5f 4357 4148      	0x414843575f5f
    395c:	5f52                	lw	t5,52(sp)
    395e:	494d                	li	s2,19
    3960:	5f4e                	lw	t5,240(sp)
    3962:	295f 5500 4e49      	0x4e495500295f
    3968:	5f54                	lw	a3,60(a4)
    396a:	4146                	lw	sp,80(sp)
    396c:	36315453          	0x36315453
    3970:	4d5f 5841 2820      	0x282058414d5f
    3976:	5f5f 4955 544e      	0x544e49555f5f
    397c:	465f 5341 3154      	0x31545341465f
    3982:	5f36                	lw	t5,108(sp)
    3984:	414d                	li	sp,19
    3986:	5f58                	lw	a4,60(a4)
    3988:	295f 5f00 455f      	0x455f5f00295f
    398e:	5058                	lw	a4,36(s0)
    3990:	7828                	flw	fa0,112(s0)
    3992:	2029                	jal	399c <_erodata+0x385c>
    3994:	5f5f 2320 7823      	0x782323205f5f
    399a:	2320                	fld	fs0,64(a4)
    399c:	005f5f23          	0x5f5f23
    39a0:	5f5f 4c46 3654      	0x36544c465f5f
    39a6:	5834                	lw	a3,112(s0)
    39a8:	4d5f 5841 315f      	0x315f58414d5f
    39ae:	5f30                	lw	a2,120(a4)
    39b0:	5845                	li	a6,-15
    39b2:	5f50                	lw	a2,60(a4)
    39b4:	205f 3934 3233      	0x32333934205f
    39ba:	5500                	lw	s0,40(a0)
    39bc:	4e49                	li	t3,18
    39be:	5f54                	lw	a3,60(a4)
    39c0:	454c                	lw	a1,12(a0)
    39c2:	5341                	li	t1,-16
    39c4:	3154                	fld	fa3,160(a0)
    39c6:	5f36                	lw	t5,108(sp)
    39c8:	414d                	li	sp,19
    39ca:	2058                	fld	fa4,128(s0)
    39cc:	5f28                	lw	a0,120(a4)
    39ce:	555f 4e49 5f54      	0x5f544e49555f
    39d4:	454c                	lw	a1,12(a0)
    39d6:	5341                	li	t1,-16
    39d8:	3154                	fld	fa3,160(a0)
    39da:	5f36                	lw	t5,108(sp)
    39dc:	414d                	li	sp,19
    39de:	5f58                	lw	a4,60(a4)
    39e0:	295f 5f00 465f      	0x465f5f00295f
    39e6:	544c                	lw	a1,44(s0)
    39e8:	5f583233          	0x5f583233
    39ec:	494d                	li	s2,19
    39ee:	5f4e                	lw	t5,240(sp)
    39f0:	5845                	li	a6,-15
    39f2:	5f50                	lw	a2,60(a4)
    39f4:	205f 2d28 3031      	0x30312d28205f
    39fa:	3132                	fld	ft2,296(sp)
    39fc:	0029                	c.nop	10
    39fe:	5f5f 695f 746e      	0x746e695f5f5f
    3a04:	5f38                	lw	a4,120(a4)
    3a06:	5f74                	lw	a3,124(a4)
    3a08:	6564                	flw	fs1,76(a0)
    3a0a:	6966                	flw	fs2,88(sp)
    3a0c:	656e                	flw	fa0,216(sp)
    3a0e:	2064                	fld	fs1,192(s0)
    3a10:	0031                	c.nop	12
    3a12:	5f5f 4e49 3354      	0x33544e495f5f
    3a18:	2032                	fld	ft0,264(sp)
    3a1a:	6c22                	flw	fs8,8(sp)
    3a1c:	0022                	c.slli	zero,0x8
    3a1e:	5f5f 4955 544e      	0x544e49555f5f
    3a24:	4c5f 4145 5453      	0x545341454c5f
    3a2a:	4d5f3233          	0x4d5f3233
    3a2e:	5841                	li	a6,-16
    3a30:	5f5f 3020 6678      	0x667830205f5f
    3a36:	6666                	flw	fa2,88(sp)
    3a38:	6666                	flw	fa2,88(sp)
    3a3a:	6666                	flw	fa2,88(sp)
    3a3c:	5566                	lw	a0,120(sp)
    3a3e:	004c                	addi	a1,sp,4
    3a40:	5f5f 6964 6173      	0x617369645f5f
    3a46:	6c62                	flw	fs8,24(sp)
    3a48:	5f65                	li	t5,-7
    3a4a:	696e6173          	csrrsi	sp,0x696,28
    3a4e:	6974                	flw	fa3,84(a0)
    3a50:	657a                	flw	fa0,156(sp)
    3a52:	5f72                	lw	t5,60(sp)
    3a54:	6e69                	lui	t3,0x1a
    3a56:	75727473          	csrrci	s0,0x757,4
    3a5a:	656d                	lui	a0,0x1b
    3a5c:	746e                	flw	fs0,248(sp)
    3a5e:	7461                	lui	s0,0xffff8
    3a60:	6f69                	lui	t5,0x1a
    3a62:	206e                	fld	ft0,216(sp)
    3a64:	5f00                	lw	s0,56(a4)
    3a66:	725f 7369 7663      	0x76637369725f
    3a6c:	645f 7669 3120      	0x31207669645f
    3a72:	5f00                	lw	s0,56(a4)
    3a74:	5341                	li	t1,-16
    3a76:	4e4d                	li	t3,19
    3a78:	4d41                	li	s10,16
    3a7a:	2845                	jal	3b2a <_erodata+0x39ea>
    3a7c:	6d616e63          	bltu	sp,s6,4158 <_erodata+0x4018>
    3a80:	2965                	jal	3f38 <_erodata+0x3df8>
    3a82:	5f20                	lw	s0,120(a4)
    3a84:	615f 6d73 5f5f      	0x5f5f6d73615f
    3a8a:	5f28                	lw	a0,120(a4)
    3a8c:	415f 4d53 414e      	0x414e4d53415f
    3a92:	454d                	li	a0,19
    3a94:	6328                	flw	fa0,64(a4)
    3a96:	616e                	flw	ft2,216(sp)
    3a98:	656d                	lui	a0,0x1b
    3a9a:	2929                	jal	3eb4 <_erodata+0x3d74>
    3a9c:	5f00                	lw	s0,56(a4)
    3a9e:	4c5f 4244 5f4c      	0x5f4c42444c5f
    3aa4:	4148                	lw	a0,4(a0)
    3aa6:	55515f53          	0x55515f53
    3aaa:	4549                	li	a0,18
    3aac:	5f54                	lw	a3,60(a4)
    3aae:	414e                	lw	sp,208(sp)
    3ab0:	5f4e                	lw	t5,240(sp)
    3ab2:	205f 0031 5f5f      	0x5f5f0031205f
    3ab8:	4e49                	li	t3,18
    3aba:	3854                	fld	fa3,176(s0)
    3abc:	545f 5059 5f45      	0x5f455059545f
    3ac2:	205f 6973 6e67      	0x6e676973205f
    3ac8:	6465                	lui	s0,0x19
    3aca:	6320                	flw	fs0,64(a4)
    3acc:	6168                	flw	fa0,68(a0)
    3ace:	0072                	c.slli	zero,0x1c
    3ad0:	5f5f 4957 544e      	0x544e49575f5f
    3ad6:	4d5f 5841 5f5f      	0x5f5f58414d5f
    3adc:	3020                	fld	fs0,96(s0)
    3ade:	6678                	flw	fa4,76(a2)
    3ae0:	6666                	flw	fa2,88(sp)
    3ae2:	6666                	flw	fa2,88(sp)
    3ae4:	6666                	flw	fa2,88(sp)
    3ae6:	5566                	lw	a0,120(sp)
    3ae8:	5f00                	lw	s0,56(a4)
    3aea:	4f50                	lw	a2,28(a4)
    3aec:	4e49                	li	t3,18
    3aee:	4554                	lw	a3,12(a0)
    3af0:	5f52                	lw	t5,52(sp)
    3af2:	4e49                	li	t3,18
    3af4:	2054                	fld	fa3,128(s0)
    3af6:	6f6c                	flw	fa1,92(a4)
    3af8:	676e                	flw	fa4,216(sp)
    3afa:	4900                	lw	s0,16(a0)
    3afc:	544e                	lw	s0,240(sp)
    3afe:	4d5f3233          	0x4d5f3233
    3b02:	5841                	li	a6,-16
    3b04:	2820                	fld	fs0,80(s0)
    3b06:	5f5f 4e49 3354      	0x33544e495f5f
    3b0c:	5f32                	lw	t5,44(sp)
    3b0e:	414d                	li	sp,19
    3b10:	5f58                	lw	a4,60(a4)
    3b12:	295f 4800 5641      	0x56414800295f
    3b18:	5f45                	li	t5,-15
    3b1a:	5250                	lw	a2,36(a2)
    3b1c:	4e49                	li	t3,18
    3b1e:	4654                	lw	a3,12(a2)
    3b20:	3120                	fld	fs0,96(a0)
    3b22:	5f00                	lw	s0,56(a4)
    3b24:	535f 4843 5241      	0x52414843535f
    3b2a:	575f 4449 4854      	0x48544449575f
    3b30:	5f5f 3820 4300      	0x430038205f5f
    3b36:	49464e4f          	fnmadd.s	ft8,fa2,fs4,fs1,rmm
    3b3a:	50435f47          	fmsub.s	ft10,ft6,ft4,fa0,unknown
    3b3e:	5f55                	li	t5,-11
    3b40:	4148                	lw	a0,4(a0)
    3b42:	43495f53          	0x43495f53
    3b46:	4341                	li	t1,16
    3b48:	4548                	lw	a0,12(a0)
    3b4a:	0020                	addi	s0,sp,8
    3b4c:	5f5f 414c 4752      	0x4752414c5f5f
    3b52:	4645                	li	a2,17
    3b54:	4c49                	li	s8,18
    3b56:	5f45                	li	t5,-15
    3b58:	4956                	lw	s2,84(sp)
    3b5a:	4c424953          	0x4c424953
    3b5e:	2045                	jal	3bfe <_erodata+0x3abe>
    3b60:	0030                	addi	a2,sp,8
    3b62:	4e49                	li	t3,18
    3b64:	5f54                	lw	a3,60(a4)
    3b66:	4146                	lw	sp,80(sp)
    3b68:	34365453          	0x34365453
    3b6c:	4d5f 5841 2820      	0x282058414d5f
    3b72:	5f5f 4e49 5f54      	0x5f544e495f5f
    3b78:	4146                	lw	sp,80(sp)
    3b7a:	34365453          	0x34365453
    3b7e:	4d5f 5841 5f5f      	0x5f5f58414d5f
    3b84:	0029                	c.nop	10
    3b86:	5f5f 4c46 3654      	0x36544c465f5f
    3b8c:	5834                	lw	a3,112(s0)
    3b8e:	4d5f 4e49 455f      	0x455f4e494d5f
    3b94:	5058                	lw	a4,36(s0)
    3b96:	5f5f 2820 312d      	0x312d28205f5f
    3b9c:	3336                	fld	ft6,360(sp)
    3b9e:	3138                	fld	fa4,96(a0)
    3ba0:	0029                	c.nop	10
    3ba2:	5f5f 5358 5254      	0x525453585f5f
    3ba8:	4e49                	li	t3,18
    3baa:	29782847          	fmsub.s	fa6,fa6,fs7,ft5,rdn
    3bae:	5f20                	lw	s0,120(a4)
    3bb0:	535f 5254 4e49      	0x4e495254535f
    3bb6:	29782847          	fmsub.s	fa6,fa6,fs7,ft5,rdn
    3bba:	5f00                	lw	s0,56(a4)
    3bbc:	695f 746e 665f      	0x665f746e695f
    3bc2:	7361                	lui	t1,0xffff8
    3bc4:	3874                	fld	fa3,240(s0)
    3bc6:	745f 645f 6665      	0x6665645f745f
    3bcc:	6e69                	lui	t3,0x1a
    3bce:	6465                	lui	s0,0x19
    3bd0:	3120                	fld	fs0,96(a0)
    3bd2:	5f00                	lw	s0,56(a4)
    3bd4:	555f 4e49 5f54      	0x5f544e49555f
    3bda:	454c                	lw	a1,12(a0)
    3bdc:	5341                	li	t1,-16
    3bde:	3854                	fld	fa3,176(s0)
    3be0:	4d5f 5841 5f5f      	0x5f5f58414d5f
    3be6:	3020                	fld	fs0,96(s0)
    3be8:	6678                	flw	fa4,76(a2)
    3bea:	0066                	c.slli	zero,0x19
    3bec:	464e4f43          	fmadd.q	ft10,ft8,ft4,fs0,rmm
    3bf0:	4749                	li	a4,18
    3bf2:	425f 5355 535f      	0x535f5355425f
    3bf8:	4154                	lw	a3,4(a0)
    3bfa:	444e                	lw	s0,208(sp)
    3bfc:	5241                	li	tp,-16
    3bfe:	2044                	fld	fs1,128(s0)
    3c00:	7722                	flw	fa4,40(sp)
    3c02:	7369                	lui	t1,0xffffa
    3c04:	6268                	flw	fa0,68(a2)
    3c06:	22656e6f          	jal	t3,59e2c <_erodata+0x59cec>
    3c0a:	5500                	lw	s0,40(a0)
    3c0c:	4e49                	li	t3,18
    3c0e:	5054                	lw	a3,36(s0)
    3c10:	5254                	lw	a3,36(a2)
    3c12:	4d5f 5841 2820      	0x282058414d5f
    3c18:	5f5f 4955 544e      	0x544e49555f5f
    3c1e:	5450                	lw	a2,44(s0)
    3c20:	5f52                	lw	t5,52(sp)
    3c22:	414d                	li	sp,19
    3c24:	5f58                	lw	a4,60(a4)
    3c26:	295f 5f00 555f      	0x555f5f00295f
    3c2c:	4e49                	li	t3,18
    3c2e:	3354                	fld	fa3,160(a4)
    3c30:	5f32                	lw	t5,44(sp)
    3c32:	29632843          	fmadd.s	fa6,ft6,fs6,ft5,rdn
    3c36:	6320                	flw	fs0,64(a4)
    3c38:	2320                	fld	fs0,64(a4)
    3c3a:	4c552023          	sw	t0,1216(a0) # 1b4c0 <_erodata+0x1b380>
    3c3e:	5f00                	lw	s0,56(a4)
    3c40:	555f 4e49 5f54      	0x5f544e49555f
    3c46:	4146                	lw	sp,80(sp)
    3c48:	34365453          	0x34365453
    3c4c:	4d5f 5841 5f5f      	0x5f5f58414d5f
    3c52:	3020                	fld	fs0,96(s0)
    3c54:	6678                	flw	fa4,76(a2)
    3c56:	6666                	flw	fa2,88(sp)
    3c58:	6666                	flw	fa2,88(sp)
    3c5a:	6666                	flw	fa2,88(sp)
    3c5c:	6666                	flw	fa2,88(sp)
    3c5e:	6666                	flw	fa2,88(sp)
    3c60:	6666                	flw	fa2,88(sp)
    3c62:	6666                	flw	fa2,88(sp)
    3c64:	5566                	lw	a0,120(sp)
    3c66:	4c4c                	lw	a1,28(s0)
    3c68:	5f00                	lw	s0,56(a4)
    3c6a:	555f 4e49 5f54      	0x5f544e49555f
    3c70:	4146                	lw	sp,80(sp)
    3c72:	32335453          	0x32335453
    3c76:	4d5f 5841 5f5f      	0x5f5f58414d5f
    3c7c:	3020                	fld	fs0,96(s0)
    3c7e:	6678                	flw	fa4,76(a2)
    3c80:	6666                	flw	fa2,88(sp)
    3c82:	6666                	flw	fa2,88(sp)
    3c84:	6666                	flw	fa2,88(sp)
    3c86:	5566                	lw	a0,120(sp)
    3c88:	5f00                	lw	s0,56(a4)
    3c8a:	4955                	li	s2,21
    3c8c:	544e                	lw	s0,240(sp)
    3c8e:	5450                	lw	a2,44(s0)
    3c90:	5f52                	lw	t5,52(sp)
    3c92:	5f54                	lw	a3,60(a4)
    3c94:	4544                	lw	s1,12(a0)
    3c96:	52414c43          	fmadd.d	fs8,ft2,ft4,fa0,rmm
    3c9a:	4445                	li	s0,17
    3c9c:	0020                	addi	s0,sp,8
    3c9e:	616d                	addi	sp,sp,240
    3ca0:	2878                	fld	fa4,208(s0)
    3ca2:	2c78                	fld	fa4,216(s0)
    3ca4:	2979                	jal	4142 <_erodata+0x4002>
    3ca6:	2820                	fld	fs0,80(s0)
    3ca8:	2828                	fld	fa0,80(s0)
    3caa:	2978                	fld	fa4,208(a0)
    3cac:	3e20                	fld	fs0,120(a2)
    3cae:	2820                	fld	fs0,80(s0)
    3cb0:	2979                	jal	414e <_erodata+0x400e>
    3cb2:	2029                	jal	3cbc <_erodata+0x3b7c>
    3cb4:	7828203f 203a2029 	0x203a20297828203f
    3cbc:	7928                	flw	fa0,112(a0)
    3cbe:	2929                	jal	40d8 <_erodata+0x3f98>
    3cc0:	5f00                	lw	s0,56(a4)
    3cc2:	495f 544e 3436      	0x3436544e495f
    3cc8:	435f 6328 2029      	0x20296328435f
    3cce:	23232063          	0x23232063
    3cd2:	4c20                	lw	s0,88(s0)
    3cd4:	004c                	addi	a1,sp,4
    3cd6:	5f5f 4c46 3154      	0x31544c465f5f
    3cdc:	3832                	fld	fa6,296(sp)
    3cde:	455f 5350 4c49      	0x4c495350455f
    3ce4:	5f5f4e4f          	fnmadd.q	ft8,ft10,fs5,fa1,rmm
    3ce8:	3120                	fld	fs0,96(a0)
    3cea:	392e                	fld	fs2,232(sp)
    3cec:	3532                	fld	fa0,296(sp)
    3cee:	3239                	jal	35fc <_erodata+0x34bc>
    3cf0:	3939                	jal	390e <_erodata+0x37ce>
    3cf2:	3434                	fld	fa3,104(s0)
    3cf4:	32373833          	0x32373833
    3cf8:	35383533          	0x35383533
    3cfc:	35353033          	0x35353033
    3d00:	3739                	jal	3c0e <_erodata+0x3ace>
    3d02:	32343937          	lui	s2,0x32343
    3d06:	3835                	jal	3542 <_erodata+0x3402>
    3d08:	3934                	fld	fa3,112(a0)
    3d0a:	3732                	fld	fa4,296(sp)
    3d0c:	2d653233          	0x2d653233
    3d10:	31463433          	0x31463433
    3d14:	3832                	fld	fa6,296(sp)
    3d16:	7500                	flw	fs0,40(a0)
    3d18:	7261                	lui	tp,0xffff8
    3d1a:	5f74                	lw	a3,124(a4)
    3d1c:	7874                	flw	fa3,116(s0)
    3d1e:	7566                	flw	fa0,120(sp)
    3d20:	6c6c                	flw	fa1,92(s0)
    3d22:	725f 6165 0064      	0x646165725f
    3d28:	505f 534f 5849      	0x5849534f505f
    3d2e:	435f 535f 554f      	0x554f535f435f
    3d34:	4352                	lw	t1,20(sp)
    3d36:	0045                	c.nop	17
    3d38:	5f5f 4953 455a      	0x455a49535f5f
    3d3e:	4c5f464f          	0x4c5f464f
    3d42:	5f474e4f          	fnmadd.q	ft8,fa4,fs4,fa1,rmm
    3d46:	4f4c                	lw	a1,28(a4)
    3d48:	474e                	lw	a4,208(sp)
    3d4a:	5f5f 3820 5f00      	0x5f0038205f5f
    3d50:	485f 5641 5f45      	0x5f455641485f
    3d56:	5542                	lw	a0,48(sp)
    3d58:	4c49                	li	s8,18
    3d5a:	4954                	lw	a3,20(a0)
    3d5c:	5f4e                	lw	t5,240(sp)
    3d5e:	5349                	li	t1,-14
    3d60:	414e                	lw	sp,208(sp)
    3d62:	4c4e                	lw	s8,208(sp)
    3d64:	3120                	fld	fs0,96(a0)
    3d66:	5f00                	lw	s0,56(a4)
    3d68:	555f 4e49 3854      	0x38544e49555f
    3d6e:	545f 5059 5f45      	0x5f455059545f
    3d74:	205f 6e75 6973      	0x69736e75205f
    3d7a:	64656e67          	0x64656e67
    3d7e:	6320                	flw	fs0,64(a4)
    3d80:	6168                	flw	fa0,68(a0)
    3d82:	0072                	c.slli	zero,0x1c
    3d84:	5f5f 4853 5452      	0x545248535f5f
    3d8a:	575f 4449 4854      	0x48544449575f
    3d90:	5f5f 3120 0036      	0x3631205f5f
    3d96:	4e49                	li	t3,18
    3d98:	3654                	fld	fa3,168(a2)
    3d9a:	5f34                	lw	a3,120(a4)
    3d9c:	414d                	li	sp,19
    3d9e:	2058                	fld	fa4,128(s0)
    3da0:	5f28                	lw	a0,120(a4)
    3da2:	495f 544e 3436      	0x3436544e495f
    3da8:	4d5f 5841 5f5f      	0x5f5f58414d5f
    3dae:	0029                	c.nop	10
    3db0:	5f5f 4c46 3654      	0x36544c465f5f
    3db6:	5f34                	lw	a3,120(a4)
    3db8:	4f4e                	lw	t5,208(sp)
    3dba:	4d52                	lw	s10,20(sp)
    3dbc:	4d5f 5841 5f5f      	0x5f5f58414d5f
    3dc2:	3120                	fld	fs0,96(a0)
    3dc4:	372e                	fld	fa4,232(sp)
    3dc6:	3739                	jal	3cd4 <_erodata+0x3b94>
    3dc8:	3936                	fld	fs2,360(sp)
    3dca:	34333133          	0x34333133
    3dce:	3638                	fld	fa4,104(a2)
    3dd0:	3332                	fld	ft6,296(sp)
    3dd2:	3531                	jal	3bde <_erodata+0x3a9e>
    3dd4:	31383037          	lui	zero,0x31383
    3dd8:	3534                	fld	fa3,104(a0)
    3dda:	3732                	fld	fa4,296(sp)
    3ddc:	3234                	fld	fa3,96(a2)
    3dde:	31333733          	0x31333733
    3de2:	33343037          	lui	zero,0x33343
    3de6:	3735                	jal	3d12 <_erodata+0x3bd2>
    3de8:	2b65                	jal	43a0 <_erodata+0x4260>
    3dea:	46383033          	0x46383033
    3dee:	3436                	fld	fs0,360(sp)
    3df0:	5300                	lw	s0,32(a4)
    3df2:	5a49                	li	s4,-14
    3df4:	5f45                	li	t5,-15
    3df6:	414d                	li	sp,19
    3df8:	2058                	fld	fa4,128(s0)
    3dfa:	5f28                	lw	a0,120(a4)
    3dfc:	535f 5a49 5f45      	0x5f455a49535f
    3e02:	414d                	li	sp,19
    3e04:	5f58                	lw	a4,60(a4)
    3e06:	295f 5f00 495f      	0x495f5f00295f
    3e0c:	544e                	lw	s0,240(sp)
    3e0e:	4c5f 4145 5453      	0x545341454c5f
    3e14:	3436                	fld	fs0,360(sp)
    3e16:	545f 5059 5f45      	0x5f455059545f
    3e1c:	205f 6f6c 676e      	0x676e6f6c205f
    3e22:	6c20                	flw	fs0,88(s0)
    3e24:	20676e6f          	jal	t3,7a02a <_erodata+0x79eea>
    3e28:	6e69                	lui	t3,0x1a
    3e2a:	0074                	addi	a3,sp,12
    3e2c:	5f5f 4152 444e      	0x444e41525f5f
    3e32:	4d5f 5841 3020      	0x302058414d5f
    3e38:	3778                	fld	fa4,232(a4)
    3e3a:	6666                	flw	fa2,88(sp)
    3e3c:	6666                	flw	fa2,88(sp)
    3e3e:	6666                	flw	fa2,88(sp)
    3e40:	0066                	c.slli	zero,0x19
    3e42:	4955                	li	s2,21
    3e44:	544e                	lw	s0,240(sp)
    3e46:	414d                	li	sp,19
    3e48:	5f58                	lw	a4,60(a4)
    3e4a:	29782843          	fmadd.s	fa6,fa6,fs7,ft5,rdn
    3e4e:	5f20                	lw	s0,120(a4)
    3e50:	555f 4e49 4d54      	0x4d544e49555f
    3e56:	5841                	li	a6,-16
    3e58:	435f 7828 0029      	0x297828435f
    3e5e:	5f5f 4955 544e      	0x544e49555f5f
    3e64:	545f3233          	0x545f3233
    3e68:	5059                	c.li	zero,-10
    3e6a:	5f45                	li	t5,-15
    3e6c:	205f 6f6c 676e      	0x676e6f6c205f
    3e72:	7520                	flw	fs0,104(a0)
    3e74:	736e                	flw	ft6,248(sp)
    3e76:	6769                	lui	a4,0x1a
    3e78:	656e                	flw	fa0,216(sp)
    3e7a:	2064                	fld	fs1,192(s0)
    3e7c:	6e69                	lui	t3,0x1a
    3e7e:	0074                	addi	a3,sp,12
    3e80:	5f5f 6f62 6e75      	0x6e756f625f5f
    3e86:	6564                	flw	fs1,76(a0)
    3e88:	2064                	fld	fs1,192(s0)
    3e8a:	4300                	lw	s0,0(a4)
    3e8c:	49464e4f          	fnmadd.s	ft8,fa2,fs4,fs1,rmm
    3e90:	50435f47          	fmsub.s	ft10,ft6,ft4,fa0,unknown
    3e94:	5f55                	li	t5,-11
    3e96:	4156                	lw	sp,84(sp)
    3e98:	4952                	lw	s2,20(sp)
    3e9a:	4e41                	li	t3,16
    3e9c:	5f54                	lw	a3,60(a4)
    3e9e:	4e415453          	0x4e415453
    3ea2:	4144                	lw	s1,4(a0)
    3ea4:	4452                	lw	s0,20(sp)
    3ea6:	0020                	addi	s0,sp,8
    3ea8:	5f5f 4953 455a      	0x455a49535f5f
    3eae:	505f464f          	fnmadd.s	fa2,ft10,ft5,fa0,rmm
    3eb2:	544e494f          	0x544e494f
    3eb6:	5245                	li	tp,-15
    3eb8:	5f5f 3420 5f00      	0x5f0034205f5f
    3ebe:	475f 4e45 5245      	0x52454e45475f
    3ec4:	5441                	li	s0,-16
    3ec6:	4445                	li	s0,17
    3ec8:	435f 5253 485f      	0x485f5253435f
    3ece:	0020                	addi	s0,sp,8
    3ed0:	5f525343          	fmadd.q	ft6,ft4,fs5,fa1,unknown
    3ed4:	4155                	li	sp,21
    3ed6:	5452                	lw	s0,52(sp)
    3ed8:	525f 4658 4c55      	0x4c554658525f
    3ede:	5f4c                	lw	a1,60(a4)
    3ee0:	455a4953          	0x455a4953
    3ee4:	3120                	fld	fs0,96(a0)
    3ee6:	5f00                	lw	s0,56(a4)
    3ee8:	635f 6e6f 7473      	0x74736e6f635f
    3eee:	5f20                	lw	s0,120(a4)
    3ef0:	615f 7474 6972      	0x69727474615f
    3ef6:	7562                	flw	fa0,56(sp)
    3ef8:	6574                	flw	fa3,76(a0)
    3efa:	5f5f 2828 5f5f      	0x5f5f28285f5f
    3f00:	736e6f63          	bltu	t3,s6,463e <_erodata+0x44fe>
    3f04:	5f74                	lw	a3,124(a4)
    3f06:	295f 0029 445f      	0x445f0029295f
    3f0c:	4645                	li	a2,17
    3f0e:	5541                	li	a0,-16
    3f10:	544c                	lw	a1,44(s0)
    3f12:	535f 554f 4352      	0x4352554f535f
    3f18:	0045                	c.nop	17
    3f1a:	5f5f 4357 4148      	0x414843575f5f
    3f20:	5f52                	lw	t5,52(sp)
    3f22:	414d                	li	sp,19
    3f24:	5f58                	lw	a4,60(a4)
    3f26:	205f 7830 6637      	0x66377830205f
    3f2c:	6666                	flw	fa2,88(sp)
    3f2e:	6666                	flw	fa2,88(sp)
    3f30:	6666                	flw	fa2,88(sp)
    3f32:	4300                	lw	s0,0(a4)
    3f34:	425f5253          	0x425f5253
    3f38:	5341                	li	t1,-16
    3f3a:	2045                	jal	3fda <_erodata+0x3e9a>
    3f3c:	7830                	flw	fa2,112(s0)
    3f3e:	3066                	fld	ft0,120(sp)
    3f40:	3030                	fld	fa2,96(s0)
    3f42:	3030                	fld	fa2,96(s0)
    3f44:	3030                	fld	fa2,96(s0)
    3f46:	004c                	addi	a1,sp,4
    3f48:	5f5f 4c46 5f54      	0x5f544c465f5f
    3f4e:	4544                	lw	s1,12(a0)
    3f50:	4f4e                	lw	t5,208(sp)
    3f52:	4d52                	lw	s10,20(sp)
    3f54:	4d5f 4e49 5f5f      	0x5f5f4e494d5f
    3f5a:	3120                	fld	fs0,96(a0)
    3f5c:	342e                	fld	fs0,232(sp)
    3f5e:	3130                	fld	fa2,96(a0)
    3f60:	3932                	fld	fs2,296(sp)
    3f62:	3438                	fld	fa4,104(s0)
    3f64:	3436                	fld	fs0,360(sp)
    3f66:	38343233          	0x38343233
    3f6a:	3731                	jal	3e76 <_erodata+0x3d36>
    3f6c:	3730                	fld	fa2,104(a4)
    3f6e:	3930                	fld	fa2,112(a0)
    3f70:	3332                	fld	ft6,296(sp)
    3f72:	35393237          	lui	tp,0x35393
    3f76:	3338                	fld	fa4,96(a4)
    3f78:	3832                	fld	fa6,296(sp)
    3f7a:	3939                	jal	3b98 <_erodata+0x3a58>
    3f7c:	3631                	jal	3a88 <_erodata+0x3948>
    3f7e:	3331                	jal	3c8a <_erodata+0x3b4a>
    3f80:	2d65                	jal	4638 <_erodata+0x44f8>
    3f82:	3534                	fld	fa3,104(a0)
    3f84:	0046                	c.slli	zero,0x11
    3f86:	5f5f 4e49 5f54      	0x5f544e495f5f
    3f8c:	54444957          	0x54444957
    3f90:	5f48                	lw	a0,60(a4)
    3f92:	205f 3233 5f00      	0x5f003233205f
    3f98:	465f 544c 3231      	0x3231544c465f
    3f9e:	5f38                	lw	a4,120(a4)
    3fa0:	4544                	lw	s1,12(a0)
    3fa2:	414d4943          	fmadd.s	fs2,fs10,fs4,fs0,rmm
    3fa6:	5f4c                	lw	a1,60(a4)
    3fa8:	4944                	lw	s1,20(a0)
    3faa:	205f5f47          	fmsub.s	ft10,ft10,ft5,ft4,unknown
    3fae:	5f003633          	0x5f003633
    3fb2:	485f 5641 5f45      	0x5f455641485f
    3fb8:	4f4c                	lw	a1,28(a4)
    3fba:	474e                	lw	a4,208(sp)
    3fbc:	445f 554f 4c42      	0x4c42554f445f
    3fc2:	2045                	jal	4062 <_erodata+0x3f22>
    3fc4:	5f00                	lw	s0,56(a4)
    3fc6:	555f 4e49 3654      	0x36544e49555f
    3fcc:	5f34                	lw	a3,120(a4)
    3fce:	29632843          	fmadd.s	fa6,ft6,fs6,ft5,rdn
    3fd2:	6320                	flw	fs0,64(a4)
    3fd4:	2320                	fld	fs0,64(a4)
    3fd6:	4c552023          	sw	t0,1216(a0)
    3fda:	004c                	addi	a1,sp,4
    3fdc:	5f5f 4544 4943      	0x494345445f5f
    3fe2:	414d                	li	sp,19
    3fe4:	5f4c                	lw	a1,60(a4)
    3fe6:	4944                	lw	s1,20(a0)
    3fe8:	205f5f47          	fmsub.s	ft10,ft10,ft5,ft4,unknown
    3fec:	6d003633          	0x6d003633
    3ff0:	6961                	lui	s2,0x18
    3ff2:	006e                	c.slli	zero,0x1b
    3ff4:	4e49                	li	t3,18
    3ff6:	5f54                	lw	a3,60(a4)
    3ff8:	4146                	lw	sp,80(sp)
    3ffa:	34365453          	0x34365453
    3ffe:	4d5f 4e49 2820      	0x28204e494d5f
    4004:	5f2d                	li	t5,-21
    4006:	495f 544e 465f      	0x465f544e495f
    400c:	5341                	li	t1,-16
    400e:	3654                	fld	fa3,168(a2)
    4010:	5f34                	lw	a3,120(a4)
    4012:	414d                	li	sp,19
    4014:	5f58                	lw	a4,60(a4)
    4016:	205f 202d 2931      	0x2931202d205f
    401c:	5f00                	lw	s0,56(a4)
    401e:	485f 5641 5f45      	0x5f455641485f
    4024:	5542                	lw	a0,48(sp)
    4026:	4c49                	li	s8,18
    4028:	4954                	lw	a3,20(a0)
    402a:	5f4e                	lw	t5,240(sp)
    402c:	59504f43          	fmadd.s	ft10,ft0,fs5,fa1,rmm
    4030:	4e474953          	0x4e474953
    4034:	204c                	fld	fa1,128(s0)
    4036:	0031                	c.nop	12
    4038:	5f5f 6972 6373      	0x637369725f5f
    403e:	5f76                	lw	t5,124(sp)
    4040:	6c66                	flw	fs8,88(sp)
    4042:	5f74616f          	jal	sp,4ae38 <_erodata+0x4acf8>
    4046:	6261                	lui	tp,0x18
    4048:	5f69                	li	t5,-6
    404a:	74666f73          	csrrsi	t5,0x746,12
    404e:	3120                	fld	fs0,96(a0)
    4050:	5f00                	lw	s0,56(a4)
    4052:	475f 4343 415f      	0x415f4343475f
    4058:	4f54                	lw	a3,28(a4)
    405a:	494d                	li	s2,19
    405c:	4f505f43          	fmadd.q	ft10,ft0,fs5,fs1,unknown
    4060:	4e49                	li	t3,18
    4062:	4554                	lw	a3,12(a0)
    4064:	5f52                	lw	t5,52(sp)
    4066:	4f4c                	lw	a1,28(a4)
    4068:	465f4b43          	fmadd.q	fs6,ft10,ft5,fs0,rmm
    406c:	4552                	lw	a0,20(sp)
    406e:	2045                	jal	410e <_erodata+0x3fce>
    4070:	0031                	c.nop	12
    4072:	5f5f 5355 5245      	0x524553555f5f
    4078:	4c5f 4241 4c45      	0x4c4542414c5f
    407e:	505f 4552 4946      	0x49464552505f
    4084:	5f58                	lw	a4,60(a4)
    4086:	205f 5000 5254      	0x52545000205f
    408c:	4944                	lw	s1,20(a0)
    408e:	4646                	lw	a2,80(sp)
    4090:	4d5f 5841 2820      	0x282058414d5f
    4096:	5f5f 5450 4452      	0x445254505f5f
    409c:	4649                	li	a2,18
    409e:	5f46                	lw	t5,112(sp)
    40a0:	414d                	li	sp,19
    40a2:	5f58                	lw	a4,60(a4)
    40a4:	295f 5f00 475f      	0x475f5f00295f
    40aa:	415f4343          	fmadd.s	ft6,ft10,fs5,fs0,rmm
    40ae:	4f54                	lw	a3,28(a4)
    40b0:	494d                	li	s2,19
    40b2:	48435f43          	fmadd.s	ft10,ft6,ft4,fs1,unknown
    40b6:	5241                	li	tp,-16
    40b8:	545f3233          	0x545f3233
    40bc:	4c5f 434f 5f4b      	0x5f4b434f4c5f
    40c2:	5246                	lw	tp,112(sp)
    40c4:	4545                	li	a0,17
    40c6:	3120                	fld	fs0,96(a0)
    40c8:	5f00                	lw	s0,56(a4)
    40ca:	535f 4454 5f43      	0x5f434454535f
    40d0:	4556                	lw	a0,84(sp)
    40d2:	5352                	lw	t1,52(sp)
    40d4:	4f49                	li	t5,18
    40d6:	5f4e                	lw	t5,240(sp)
    40d8:	205f 3931 3939      	0x39393931205f
    40de:	3130                	fld	fa2,96(a0)
    40e0:	004c                	addi	a1,sp,4
    40e2:	5f525343          	fmadd.q	ft6,ft4,fs5,fa1,unknown
    40e6:	4155                	li	sp,21
    40e8:	5452                	lw	s0,52(sp)
    40ea:	455f 5f56 4550      	0x45505f56455f
    40f0:	444e                	lw	s0,208(sp)
    40f2:	4e49                	li	t3,18
    40f4:	58525f47          	fmsub.s	ft10,ft4,ft5,fa1,unknown
    40f8:	535f 5a49 2045      	0x20455a49535f
    40fe:	0031                	c.nop	12
    4100:	415f 696c 6e67      	0x6e67696c415f
    4106:	7361                	lui	t1,0xffff8
    4108:	7828                	flw	fa0,112(s0)
    410a:	2029                	jal	4114 <_erodata+0x3fd4>
    410c:	5f5f 6c61 6769      	0x67696c615f5f
    4112:	656e                	flw	fa0,216(sp)
    4114:	2864                	fld	fs1,208(s0)
    4116:	2978                	fld	fa4,208(a0)
    4118:	5f00                	lw	s0,56(a4)
    411a:	485f 5641 5f45      	0x5f455641485f
    4120:	5542                	lw	a0,48(sp)
    4122:	4c49                	li	s8,18
    4124:	4954                	lw	a3,20(a0)
    4126:	5f4e                	lw	t5,240(sp)
    4128:	554d                	li	a0,-13
    412a:	5f4c                	lw	a1,60(a4)
    412c:	5245564f          	fnmadd.d	fa2,fa0,ft4,fa0,unknown
    4130:	4c46                	lw	s8,80(sp)
    4132:	3120574f          	fnmadd.s	fa4,ft0,fs2,ft6,unknown
    4136:	5f00                	lw	s0,56(a4)
    4138:	555f 4e49 4d54      	0x4d544e49555f
    413e:	5841                	li	a6,-16
    4140:	4d5f 5841 5f5f      	0x5f5f58414d5f
    4146:	3020                	fld	fs0,96(s0)
    4148:	6678                	flw	fa4,76(a2)
    414a:	6666                	flw	fa2,88(sp)
    414c:	6666                	flw	fa2,88(sp)
    414e:	6666                	flw	fa2,88(sp)
    4150:	6666                	flw	fa2,88(sp)
    4152:	6666                	flw	fa2,88(sp)
    4154:	6666                	flw	fa2,88(sp)
    4156:	6666                	flw	fa2,88(sp)
    4158:	5566                	lw	a0,120(sp)
    415a:	4c4c                	lw	a1,28(s0)
    415c:	5f00                	lw	s0,56(a4)
    415e:	735f 7274 6e6f      	0x6e6f7274735f
    4164:	65725f67          	0x65725f67
    4168:	6566                	flw	fa0,88(sp)
    416a:	6572                	flw	fa0,28(sp)
    416c:	636e                	flw	ft6,216(sp)
    416e:	5f65                	li	t5,-7
    4170:	7564                	flw	fs1,108(a0)
    4172:	2870                	fld	fa2,208(s0)
    4174:	2c6d7973          	csrrci	s2,0x2c6,26
    4178:	6c61                	lui	s8,0x18
    417a:	6169                	addi	sp,sp,208
    417c:	6d797373          	csrrci	t1,0x6d7,18
    4180:	2029                	jal	418a <_erodata+0x404a>
    4182:	7865                	lui	a6,0xffff9
    4184:	6574                	flw	fa3,76(a0)
    4186:	6e72                	flw	ft8,28(sp)
    4188:	5f20                	lw	s0,120(a4)
    418a:	745f 7079 6f65      	0x6f657079745f
    4190:	2066                	fld	ft0,88(sp)
    4192:	6128                	flw	fa0,64(a0)
    4194:	696c                	flw	fa1,84(a0)
    4196:	7361                	lui	t1,0xffff8
    4198:	296d7973          	csrrci	s2,0x296,26
    419c:	6120                	flw	fs0,64(a0)
    419e:	696c                	flw	fa1,84(a0)
    41a0:	7361                	lui	t1,0xffff8
    41a2:	206d7973          	csrrci	s2,0x206,26
    41a6:	5f5f 7461 7274      	0x727474615f5f
    41ac:	6269                	lui	tp,0x1a
    41ae:	7475                	lui	s0,0xffffd
    41b0:	5f65                	li	t5,-7
    41b2:	205f 2828 5f5f      	0x5f5f2828205f
    41b8:	6c61                	lui	s8,0x18
    41ba:	6169                	addi	sp,sp,208
    41bc:	205f5f73          	csrrwi	t5,0x205,30
    41c0:	5f28                	lw	a0,120(a4)
    41c2:	535f 5254 4e49      	0x4e495254535f
    41c8:	79732847          	fmsub.s	fa6,ft6,fs7,fa5,rdn
    41cc:	296d                	jal	4686 <_erodata+0x4546>
    41ce:	2929                	jal	45e8 <_erodata+0x44a8>
    41d0:	0029                	c.nop	10
    41d2:	4e49                	li	t3,18
    41d4:	5f54                	lw	a3,60(a4)
    41d6:	454c                	lw	a1,12(a0)
    41d8:	5341                	li	t1,-16
    41da:	3154                	fld	fa3,160(a0)
    41dc:	5f36                	lw	t5,108(sp)
    41de:	414d                	li	sp,19
    41e0:	2058                	fld	fa4,128(s0)
    41e2:	5f28                	lw	a0,120(a4)
    41e4:	495f 544e 4c5f      	0x4c5f544e495f
    41ea:	4145                	li	sp,17
    41ec:	36315453          	0x36315453
    41f0:	4d5f 5841 5f5f      	0x5f5f58414d5f
    41f6:	0029                	c.nop	10
    41f8:	5f5f 5453 4344      	0x434454535f5f
    41fe:	485f 534f 4554      	0x4554534f485f
    4204:	5f44                	lw	s1,60(a4)
    4206:	205f 0031 4e49      	0x4e490031205f
    420c:	3854                	fld	fa3,176(s0)
    420e:	435f 7828 2029      	0x20297828435f
    4214:	5f5f 4e49 3854      	0x38544e495f5f
    421a:	435f 7828 0029      	0x297828435f
    4220:	4955                	li	s2,21
    4222:	544e                	lw	s0,240(sp)
    4224:	465f 5341 3854      	0x38545341465f
    422a:	4d5f 5841 2820      	0x282058414d5f
    4230:	5f5f 4955 544e      	0x544e49555f5f
    4236:	465f 5341 3854      	0x38545341465f
    423c:	4d5f 5841 5f5f      	0x5f5f58414d5f
    4242:	0029                	c.nop	10
    4244:	5f5f 4e49 5054      	0x50544e495f5f
    424a:	5254                	lw	a3,36(a2)
    424c:	4d5f 5841 5f5f      	0x5f5f58414d5f
    4252:	3020                	fld	fs0,96(s0)
    4254:	3778                	fld	fa4,232(a4)
    4256:	6666                	flw	fa2,88(sp)
    4258:	6666                	flw	fa2,88(sp)
    425a:	6666                	flw	fa2,88(sp)
    425c:	0066                	c.slli	zero,0x19
    425e:	5f5f 616e 656b      	0x656b616e5f5f
    4264:	2064                	fld	fs1,192(s0)
    4266:	5f5f 7461 7274      	0x727474615f5f
    426c:	6269                	lui	tp,0x1a
    426e:	7475                	lui	s0,0xffffd
    4270:	5f65                	li	t5,-7
    4272:	285f 5f28 6e5f      	0x6e5f5f28285f
    4278:	6b61                	lui	s6,0x18
    427a:	6465                	lui	s0,0x19
    427c:	5f5f 2929 5f00      	0x5f0029295f5f
    4282:	485f 5641 5f45      	0x5f455641485f
    4288:	5542                	lw	a0,48(sp)
    428a:	4c49                	li	s8,18
    428c:	4954                	lw	a3,20(a0)
    428e:	5f4e                	lw	t5,240(sp)
    4290:	4646                	lw	a2,80(sp)
    4292:	31204c53          	0x31204c53
    4296:	5f00                	lw	s0,56(a4)
    4298:	485f 5641 5f45      	0x5f455641485f
    429e:	5542                	lw	a0,48(sp)
    42a0:	4c49                	li	s8,18
    42a2:	4954                	lw	a3,20(a0)
    42a4:	5f4e                	lw	t5,240(sp)
    42a6:	4441                	li	s0,16
    42a8:	5f44                	lw	s1,60(a4)
    42aa:	5245564f          	fnmadd.d	fa2,fa0,ft4,fa0,unknown
    42ae:	4c46                	lw	s8,80(sp)
    42b0:	3120574f          	fnmadd.s	fa4,ft0,fs2,ft6,unknown
    42b4:	5f00                	lw	s0,56(a4)
    42b6:	415f 4d53 414e      	0x414e4d53415f
    42bc:	454d                	li	a0,19
    42be:	6328                	flw	fa0,64(a4)
    42c0:	616e                	flw	ft2,216(sp)
    42c2:	656d                	lui	a0,0x1b
    42c4:	2029                	jal	42ce <_erodata+0x418e>
    42c6:	5f5f 5358 5254      	0x525453585f5f
    42cc:	4e49                	li	t3,18
    42ce:	5f282047          	fmsub.q	ft0,fa6,fs2,fa1,rdn
    42d2:	555f 4553 5f52      	0x5f524553555f
    42d8:	414c                	lw	a1,4(a0)
    42da:	4542                	lw	a0,16(sp)
    42dc:	5f4c                	lw	a1,60(a4)
    42de:	5250                	lw	a2,36(a2)
    42e0:	4645                	li	a2,17
    42e2:	5849                	li	a6,-14
    42e4:	5f5f 2029 6e63      	0x6e6320295f5f
    42ea:	6d61                	lui	s10,0x18
    42ec:	0065                	c.nop	25
    42ee:	5f5f 424d 455f      	0x455f424d5f5f
    42f4:	5458                	lw	a4,44(s0)
    42f6:	4e45                	li	t3,17
    42f8:	4544                	lw	s1,12(a0)
    42fa:	5f44                	lw	s1,60(a4)
    42fc:	52414843          	fmadd.d	fa6,ft2,ft4,fa0,rmm
    4300:	53544553          	0x53544553
    4304:	555f 5343 5f00      	0x5f005343555f
    430a:	4e49                	li	t3,18
    430c:	3854                	fld	fa3,176(s0)
    430e:	545f 445f 4345      	0x4345445f545f
    4314:	414c                	lw	a1,4(a0)
    4316:	4552                	lw	a0,20(sp)
    4318:	2044                	fld	fs1,128(s0)
    431a:	5f00                	lw	s0,56(a4)
    431c:	475f 4343 415f      	0x415f4343475f
    4322:	4f54                	lw	a3,28(a4)
    4324:	494d                	li	s2,19
    4326:	4c4c5f43          	0x4c4c5f43
    432a:	5f474e4f          	fnmadd.q	ft8,fa4,fs4,fa1,rmm
    432e:	4f4c                	lw	a1,28(a4)
    4330:	465f4b43          	fmadd.q	fs6,ft10,ft5,fs0,rmm
    4334:	4552                	lw	a0,20(sp)
    4336:	2045                	jal	43d6 <_erodata+0x4296>
    4338:	0031                	c.nop	12
    433a:	5f5f 4c46 5f54      	0x5f544c465f5f
    4340:	414d                	li	sp,19
    4342:	5f58                	lw	a4,60(a4)
    4344:	5845                	li	a6,-15
    4346:	5f50                	lw	a2,60(a4)
    4348:	205f 3231 0038      	0x383231205f
    434e:	5f525343          	fmadd.q	ft6,ft4,fs5,fa1,unknown
    4352:	4155                	li	sp,21
    4354:	5452                	lw	s0,52(sp)
    4356:	545f 4658 4c55      	0x4c554658545f
    435c:	5f4c                	lw	a1,60(a4)
    435e:	455a4953          	0x455a4953
    4362:	3120                	fld	fs0,96(a0)
    4364:	5f00                	lw	s0,56(a4)
    4366:	415f 4f54 494d      	0x494d4f54415f
    436c:	43415f43          	fmadd.d	ft10,ft2,fs4,fs0,unknown
    4370:	5f51                	li	t5,-12
    4372:	4552                	lw	a0,20(sp)
    4374:	204c                	fld	fa1,128(s0)
    4376:	0034                	addi	a3,sp,8
    4378:	5f5f 444c 4c42      	0x4c42444c5f5f
    437e:	445f 4749 5f5f      	0x5f5f4749445f
    4384:	3320                	fld	fs0,96(a4)
    4386:	5f5f0033          	0x5f5f0033
    438a:	6972                	flw	fs2,28(sp)
    438c:	5f766373          	csrrsi	t1,0x5f7,12
    4390:	756d                	lui	a0,0xffffb
    4392:	206c                	fld	fa1,192(s0)
    4394:	0031                	c.nop	12
    4396:	5f5f 424f 4f53      	0x4f53424f5f5f
    439c:	454c                	lw	a1,12(a0)
    439e:	4554                	lw	a3,12(a0)
    43a0:	4d5f 5441 5f48      	0x5f4854414d5f
    43a6:	4f44                	lw	s1,28(a4)
    43a8:	4255                	li	tp,21
    43aa:	454c                	lw	a1,12(a0)
    43ac:	5f20                	lw	s0,120(a4)
    43ae:	4f5f 5342 4c4f      	0x4c4f53424f5f
    43b4:	5445                	li	s0,-15
    43b6:	5f45                	li	t5,-15
    43b8:	414d                	li	sp,19
    43ba:	4854                	lw	a3,20(s0)
    43bc:	5f00                	lw	s0,56(a4)
    43be:	465f 544c 4d5f      	0x4d5f544c465f
    43c4:	4e49                	li	t3,18
    43c6:	5f5f 3120 312e      	0x312e31205f5f
    43cc:	39343537          	lui	a0,0x39343
    43d0:	3334                	fld	fa3,96(a4)
    43d2:	3035                	jal	3bfe <_erodata+0x3abe>
    43d4:	3238                	fld	fa4,96(a2)
    43d6:	3232                	fld	ft4,296(sp)
    43d8:	3738                	fld	fa4,104(a4)
    43da:	3035                	jal	3c06 <_erodata+0x3ac6>
    43dc:	38363937          	lui	s2,0x38363
    43e0:	35363337          	lui	t1,0x35363
    43e4:	32323733          	0x32323733
    43e8:	3232                	fld	ft4,296(sp)
    43ea:	3534                	fld	fa3,104(a0)
    43ec:	3836                	fld	fa6,360(sp)
    43ee:	2d65                	jal	4aa6 <_erodata+0x4966>
    43f0:	00463833          	sltu	a6,a2,tp
    43f4:	5f5f 494d 4353      	0x4353494d5f5f
    43fa:	565f 5349 4249      	0x42495349565f
    4400:	454c                	lw	a1,12(a0)
    4402:	3120                	fld	fs0,96(a0)
    4404:	4300                	lw	s0,0(a4)
    4406:	555f5253          	0x555f5253
    440a:	5241                	li	tp,-16
    440c:	5f54                	lw	a3,60(a4)
    440e:	5645                	li	a2,-15
    4410:	455f 414e 4c42      	0x4c42414e455f
    4416:	5f45                	li	t5,-15
    4418:	5852                	lw	a6,52(sp)
    441a:	535f 5a49 2045      	0x20455a49535f
    4420:	0031                	c.nop	12
    4422:	5f5f 4e49 5054      	0x50544e495f5f
    4428:	5254                	lw	a3,36(a2)
    442a:	545f 5059 5f45      	0x5f455059545f
    4430:	205f 6e69 0074      	0x746e69205f
    4436:	5f5f 4544 5f43      	0x5f4345445f5f
    443c:	5645                	li	a2,-15
    443e:	4c41                	li	s8,16
    4440:	4d5f 5445 4f48      	0x4f4854454d5f
    4446:	5f44                	lw	s1,60(a4)
    4448:	205f 0032 5f5f      	0x5f5f0032205f
    444e:	4148                	lw	a0,4(a0)
    4450:	4556                	lw	a0,84(sp)
    4452:	425f 4955 544c      	0x544c4955425f
    4458:	4e49                	li	t3,18
    445a:	495f 4653 4e49      	0x4e494653495f
    4460:	5449                	li	s0,-14
    4462:	2045                	jal	4502 <_erodata+0x43c2>
    4464:	0031                	c.nop	12
    4466:	5f5f 444c 4c42      	0x4c42444c5f5f
    446c:	445f 4345 4d49      	0x4d494345445f
    4472:	4c41                	li	s8,16
    4474:	445f 4749 5f5f      	0x5f5f4749445f
    447a:	3320                	fld	fs0,96(a4)
    447c:	0036                	c.slli	zero,0xd
    447e:	5f5f 4146 5453      	0x545341465f5f
    4484:	00203233          	snez	tp,sp
    4488:	5f5f 424d 455f      	0x455f424d5f5f
    448e:	5458                	lw	a4,44(s0)
    4490:	4e45                	li	t3,17
    4492:	4544                	lw	s1,12(a0)
    4494:	5f44                	lw	s1,60(a4)
    4496:	52414843          	fmadd.d	fa6,ft2,ft4,fa0,rmm
    449a:	53544553          	0x53544553
    449e:	4a5f 5349 5f00      	0x5f0053494a5f
    44a4:	6d5f 6c61 6f6c      	0x6f6c6c616d5f
    44aa:	696c5f63          	bge	s8,s6,4b48 <_erodata+0x4a08>
    44ae:	775f656b          	0x775f656b
    44b2:	7469                	lui	s0,0xffffa
    44b4:	5f68                	lw	a0,124(a4)
    44b6:	7266                	flw	ft4,120(sp)
    44b8:	6565                	lui	a0,0x19
    44ba:	5f28                	lw	a0,120(a4)
    44bc:	2c66                	fld	fs8,88(sp)
    44be:	615f 2029 5f5f      	0x5f5f2029615f
    44c4:	7461                	lui	s0,0xffff8
    44c6:	7274                	flw	fa3,100(a2)
    44c8:	6269                	lui	tp,0x1a
    44ca:	7475                	lui	s0,0xffffd
    44cc:	5f65                	li	t5,-7
    44ce:	285f 5f28 6d5f      	0x6d5f5f28285f
    44d4:	6c61                	lui	s8,0x18
    44d6:	6f6c                	flw	fa1,92(a4)
    44d8:	295f5f63          	bge	t5,s5,4776 <_erodata+0x4636>
    44dc:	0029                	c.nop	10
    44de:	5f5f 4e49 5f54      	0x5f544e495f5f
    44e4:	454c                	lw	a1,12(a0)
    44e6:	5341                	li	t1,-16
    44e8:	3354                	fld	fa3,160(a4)
    44ea:	5f32                	lw	t5,44(sp)
    44ec:	54444957          	0x54444957
    44f0:	5f48                	lw	a0,60(a4)
    44f2:	205f 3233 5f00      	0x5f003233205f
    44f8:	545f 5248 4145      	0x41455248545f
    44fe:	5f44                	lw	s1,60(a4)
    4500:	4f4c                	lw	a1,28(a4)
    4502:	204c4143          	fmadd.s	ft2,fs8,ft4,ft4,rmm
    4506:	5f00                	lw	s0,56(a4)
    4508:	555f 4e49 5f54      	0x5f544e49555f
    450e:	4146                	lw	sp,80(sp)
    4510:	32335453          	0x32335453
    4514:	545f 5059 5f45      	0x5f455059545f
    451a:	205f 6e75 6973      	0x69736e75205f
    4520:	64656e67          	0x64656e67
    4524:	6920                	flw	fs0,80(a0)
    4526:	746e                	flw	fs0,248(sp)
    4528:	5f00                	lw	s0,56(a4)
    452a:	535f 5a49 5f45      	0x5f455a49535f
    4530:	5954                	lw	a3,52(a0)
    4532:	4550                	lw	a2,12(a0)
    4534:	5f5f 7520 736e      	0x736e75205f5f
    453a:	6769                	lui	a4,0x1a
    453c:	656e                	flw	fa0,216(sp)
    453e:	2064                	fld	fs1,192(s0)
    4540:	6e69                	lui	t3,0x1a
    4542:	0074                	addi	a3,sp,12
    4544:	5f5f 4f43 434e      	0x434e4f435f5f
    454a:	5441                	li	s0,-16
    454c:	7828                	flw	fa0,112(s0)
    454e:	792c                	flw	fa1,112(a0)
    4550:	2029                	jal	455a <_erodata+0x441a>
    4552:	5f5f 4f43 434e      	0x434e4f435f5f
    4558:	5441                	li	s0,-16
    455a:	2831                	jal	4576 <_erodata+0x4436>
    455c:	2c78                	fld	fa4,216(s0)
    455e:	2979                	jal	49fc <_erodata+0x48bc>
    4560:	5f00                	lw	s0,56(a4)
    4562:	485f 5641 5f45      	0x5f455641485f
    4568:	5542                	lw	a0,48(sp)
    456a:	4c49                	li	s8,18
    456c:	4954                	lw	a3,20(a0)
    456e:	5f4e                	lw	t5,240(sp)
    4570:	4946                	lw	s2,80(sp)
    4572:	494e                	lw	s2,208(sp)
    4574:	4554                	lw	a3,12(a0)
    4576:	204c                	fld	fa1,128(s0)
    4578:	0031                	c.nop	12
    457a:	5f5f 6f6e 735f      	0x735f6f6e5f5f
    4580:	6e61                	lui	t3,0x18
    4582:	7469                	lui	s0,0xffffa
    4584:	7a69                	lui	s4,0xffffa
    4586:	5f65                	li	t5,-7
    4588:	6e75                	lui	t3,0x1d
    458a:	6564                	flw	fs1,76(a0)
    458c:	6966                	flw	fs2,88(sp)
    458e:	656e                	flw	fa0,216(sp)
    4590:	2064                	fld	fs1,192(s0)
    4592:	5f5f 7461 7274      	0x727474615f5f
    4598:	6269                	lui	tp,0x1a
    459a:	7475                	lui	s0,0xffffd
    459c:	5f65                	li	t5,-7
    459e:	285f 5f28 6e5f      	0x6e5f5f28285f
    45a4:	61735f6f          	jal	t5,3a3ba <_erodata+0x3a27a>
    45a8:	696e                	flw	fs2,216(sp)
    45aa:	6974                	flw	fa3,84(a0)
    45ac:	657a                	flw	fa0,156(sp)
    45ae:	755f 646e 6665      	0x6665646e755f
    45b4:	6e69                	lui	t3,0x1a
    45b6:	6465                	lui	s0,0x19
    45b8:	5f5f 2929 5f00      	0x5f0029295f5f
    45be:	414d                	li	sp,19
    45c0:	4e494843          	fmadd.q	fa6,fs2,ft4,fs1,rmm
    45c4:	5f45                	li	t5,-15
    45c6:	445f 4645 5541      	0x55414645445f
    45cc:	544c                	lw	a1,44(s0)
    45ce:	545f 5059 5345      	0x53455059545f
    45d4:	485f 0020 5f5f      	0x5f5f0020485f
    45da:	6e69                	lui	t3,0x1a
    45dc:	3274                	fld	fa3,224(a2)
    45de:	5f30                	lw	a2,120(a4)
    45e0:	205f 322b 4900      	0x4900322b205f
    45e6:	544e                	lw	s0,240(sp)
    45e8:	465f 5341 3154      	0x31545341465f
    45ee:	5f36                	lw	t5,108(sp)
    45f0:	494d                	li	s2,19
    45f2:	204e                	fld	ft0,208(sp)
    45f4:	2d28                	fld	fa0,88(a0)
    45f6:	5f5f 4e49 5f54      	0x5f544e495f5f
    45fc:	4146                	lw	sp,80(sp)
    45fe:	36315453          	0x36315453
    4602:	4d5f 5841 5f5f      	0x5f5f58414d5f
    4608:	2d20                	fld	fs0,88(a0)
    460a:	3120                	fld	fs0,96(a0)
    460c:	0029                	c.nop	10
    460e:	5f5f 5845 0050      	0x5058455f5f
    4614:	4e49                	li	t3,18
    4616:	3654                	fld	fa3,168(a2)
    4618:	5f34                	lw	a3,120(a4)
    461a:	29782843          	fmadd.s	fa6,fa6,fs7,ft5,rdn
    461e:	5f20                	lw	s0,120(a4)
    4620:	495f 544e 3436      	0x3436544e495f
    4626:	435f 7828 0029      	0x297828435f
    462c:	5f5f 4347 5f43      	0x5f4343475f5f
    4632:	5441                	li	s0,-16
    4634:	43494d4f          	fnmadd.d	fs10,fs2,fs4,fs0,rmm
    4638:	535f 4f48 5452      	0x54524f48535f
    463e:	4c5f 434f 5f4b      	0x5f4b434f4c5f
    4644:	5246                	lw	tp,112(sp)
    4646:	4545                	li	a0,17
    4648:	3120                	fld	fs0,96(a0)
    464a:	5f00                	lw	s0,56(a4)
    464c:	4f50                	lw	a2,28(a4)
    464e:	5f584953          	0x5f584953
    4652:	52554f53          	0x52554f53
    4656:	31204543          	fmadd.s	fa0,ft0,fs2,ft6,rmm
    465a:	5f00                	lw	s0,56(a4)
    465c:	725f 6e61 6567      	0x65676e61725f
    4662:	7428666f          	jal	a2,8ada4 <_erodata+0x8ac64>
    4666:	7079                	c.lui	zero,0xffffe
    4668:	2c65                	jal	4920 <_erodata+0x47e0>
    466a:	72617473          	csrrci	s0,0x726,2
    466e:	2c74                	fld	fa3,216(s0)
    4670:	6e65                	lui	t3,0x19
    4672:	2964                	fld	fs1,208(a0)
    4674:	2820                	fld	fs0,80(s0)
    4676:	5f5f 666f 7366      	0x7366666f5f5f
    467c:	7465                	lui	s0,0xffff9
    467e:	7428666f          	jal	a2,8adc0 <_erodata+0x8ac80>
    4682:	7079                	c.lui	zero,0xffffe
    4684:	2c65                	jal	493c <_erodata+0x47fc>
    4686:	6520                	flw	fs0,72(a0)
    4688:	646e                	flw	fs0,216(sp)
    468a:	2029                	jal	4694 <_erodata+0x4554>
    468c:	202d                	jal	46b6 <_erodata+0x4576>
    468e:	5f5f 666f 7366      	0x7366666f5f5f
    4694:	7465                	lui	s0,0xffff9
    4696:	7428666f          	jal	a2,8add8 <_erodata+0x8ac98>
    469a:	7079                	c.lui	zero,0xffffe
    469c:	2c65                	jal	4954 <_erodata+0x4814>
    469e:	7320                	flw	fs0,96(a4)
    46a0:	6174                	flw	fa3,68(a0)
    46a2:	7472                	flw	fs0,60(sp)
    46a4:	2929                	jal	4abe <_erodata+0x497e>
    46a6:	5f00                	lw	s0,56(a4)
    46a8:	4f5f 5450 4d49      	0x4d4954504f5f
    46ae:	5a49                	li	s4,-14
    46b0:	5f45                	li	t5,-15
    46b2:	455a4953          	0x455a4953
    46b6:	5f5f 3120 5f00      	0x5f0031205f5f
    46bc:	505f 5254 4944      	0x49445254505f
    46c2:	4646                	lw	a2,80(sp)
    46c4:	575f 4449 4854      	0x48544449575f
    46ca:	5f5f 3320 0032      	0x3233205f5f
    46d0:	6e75                	lui	t3,0x1d
    46d2:	6e676973          	csrrsi	s2,0x6e6,14
    46d6:	6465                	lui	s0,0x19
    46d8:	2b20                	fld	fs0,80(a4)
    46da:	0030                	addi	a2,sp,8
    46dc:	72727363          	bgeu	tp,t2,4e02 <_erodata+0x4cc2>
    46e0:	7228                	flw	fa0,96(a2)
    46e2:	6765                	lui	a4,0x19
    46e4:	2029                	jal	46ee <_erodata+0x45ae>
    46e6:	7b28                	flw	fa0,112(a4)
    46e8:	7520                	flw	fs0,104(a0)
    46ea:	736e                	flw	ft6,248(sp)
    46ec:	6769                	lui	a4,0x1a
    46ee:	656e                	flw	fa0,216(sp)
    46f0:	2064                	fld	fs1,192(s0)
    46f2:	6f6c                	flw	fa1,92(a4)
    46f4:	676e                	flw	fa4,216(sp)
    46f6:	5f20                	lw	s0,120(a4)
    46f8:	745f 706d 203b      	0x203b706d745f
    46fe:	7361                	lui	t1,0xffff8
    4700:	206d                	jal	47aa <_erodata+0x466a>
    4702:	6f76                	flw	ft10,92(sp)
    4704:	616c                	flw	fa1,68(a0)
    4706:	6974                	flw	fa3,84(a0)
    4708:	656c                	flw	fa1,76(a0)
    470a:	2820                	fld	fs0,80(s0)
    470c:	6322                	flw	ft6,8(sp)
    470e:	20727273          	csrrci	tp,0x207,4
    4712:	3025                	jal	3f3a <_erodata+0x3dfa>
    4714:	202c                	fld	fa1,64(s0)
    4716:	2022                	fld	ft0,8(sp)
    4718:	67657223          	0x67657223
    471c:	3a20                	fld	fs0,112(a2)
    471e:	2220                	fld	fs0,64(a2)
    4720:	723d                	lui	tp,0xfffef
    4722:	2822                	fld	fa6,8(sp)
    4724:	5f5f 6d74 2970      	0x29706d745f5f
    472a:	3b29                	jal	4444 <_erodata+0x4304>
    472c:	5f20                	lw	s0,120(a4)
    472e:	745f 706d 203b      	0x203b706d745f
    4734:	297d                	jal	4bf2 <_erodata+0x4ab2>
    4736:	5f00                	lw	s0,56(a4)
    4738:	465f 544c 455f      	0x455f544c465f
    473e:	5350                	lw	a2,36(a4)
    4740:	4c49                	li	s8,18
    4742:	5f5f4e4f          	fnmadd.q	ft8,ft10,fs5,fa1,rmm
    4746:	3120                	fld	fs0,96(a0)
    4748:	312e                	fld	ft2,232(sp)
    474a:	3239                	jal	4058 <_erodata+0x3f18>
    474c:	3930                	fld	fa2,112(a0)
    474e:	3832                	fld	fa6,296(sp)
    4750:	3539                	jal	455e <_erodata+0x441e>
    4752:	3035                	jal	3f7e <_erodata+0x3e3e>
    4754:	32313837          	lui	a6,0x32313
    4758:	3035                	jal	3f84 <_erodata+0x3e44>
    475a:	3030                	fld	fa2,96(s0)
    475c:	3030                	fld	fa2,96(s0)
    475e:	3030                	fld	fa2,96(s0)
    4760:	3030                	fld	fa2,96(s0)
    4762:	3030                	fld	fa2,96(s0)
    4764:	3030                	fld	fa2,96(s0)
    4766:	3030                	fld	fa2,96(s0)
    4768:	3030                	fld	fa2,96(s0)
    476a:	3030                	fld	fa2,96(s0)
    476c:	2d65                	jal	4e24 <_erodata+0x4ce4>
    476e:	5f004637          	lui	a2,0x5f004
    4772:	465f 544c 3436      	0x3436544c465f
    4778:	4d5f 4e49 455f      	0x455f4e494d5f
    477e:	5058                	lw	a4,36(s0)
    4780:	5f5f 2820 312d      	0x312d28205f5f
    4786:	3230                	fld	fa2,96(a2)
    4788:	2931                	jal	4ba4 <_erodata+0x4a64>
    478a:	5000                	lw	s0,32(s0)
    478c:	4349                	li	t1,18
    478e:	42494c4f          	fnmadd.d	fs8,fs2,ft4,fs0,rmm
    4792:	20485f43          	fmadd.s	ft10,fa6,ft4,ft4,unknown
    4796:	5f00                	lw	s0,56(a4)
    4798:	465f 544c 455f      	0x455f544c465f
    479e:	4156                	lw	sp,84(sp)
    47a0:	5f4c                	lw	a1,60(a4)
    47a2:	454d                	li	a0,19
    47a4:	4854                	lw	a3,20(s0)
    47a6:	545f444f          	0x545f444f
    47aa:	38315f53          	0x38315f53
    47ae:	3636                	fld	fa2,360(sp)
    47b0:	5f31                	li	t5,-20
    47b2:	205f5f33          	0x205f5f33
    47b6:	0030                	addi	a2,sp,8
    47b8:	5f5f 4244 5f4c      	0x5f4c42445f5f
    47be:	4148                	lw	a0,4(a0)
    47c0:	4e495f53          	0x4e495f53
    47c4:	4946                	lw	s2,80(sp)
    47c6:	494e                	lw	s2,208(sp)
    47c8:	5954                	lw	a3,52(a0)
    47ca:	5f5f 3120 5f00      	0x5f0031205f5f
    47d0:	495f 544e 465f      	0x465f544e495f
    47d6:	5341                	li	t1,-16
    47d8:	3354                	fld	fa3,160(a4)
    47da:	5f32                	lw	t5,44(sp)
    47dc:	5954                	lw	a3,52(a0)
    47de:	4550                	lw	a2,12(a0)
    47e0:	5f5f 6920 746e      	0x746e69205f5f
    47e6:	4900                	lw	s0,16(a0)
    47e8:	544e                	lw	s0,240(sp)
    47ea:	5f38                	lw	a4,120(a4)
    47ec:	414d                	li	sp,19
    47ee:	2058                	fld	fa4,128(s0)
    47f0:	5f28                	lw	a0,120(a4)
    47f2:	495f 544e 5f38      	0x5f38544e495f
    47f8:	414d                	li	sp,19
    47fa:	5f58                	lw	a4,60(a4)
    47fc:	295f 4300 4e4f      	0x4e4f4300295f
    4802:	4946                	lw	s2,80(sp)
    4804:	50435f47          	fmsub.s	ft10,ft6,ft4,fa0,unknown
    4808:	5f55                	li	t5,-11
    480a:	4148                	lw	a0,4(a0)
    480c:	43445f53          	0x43445f53
    4810:	4341                	li	t1,16
    4812:	4548                	lw	a0,12(a0)
    4814:	0020                	addi	s0,sp,8
    4816:	5f5f 4953 455a      	0x455a49535f5f
    481c:	495f464f          	fnmadd.s	fa2,ft10,fs5,fs1,rmm
    4820:	544e                	lw	s0,240(sp)
    4822:	5f5f 3420 4300      	0x430034205f5f
    4828:	555f5253          	0x555f5253
    482c:	5241                	li	tp,-16
    482e:	5f54                	lw	a3,60(a4)
    4830:	5645                	li	a2,-15
    4832:	455f 414e 4c42      	0x4c42414e455f
    4838:	5f45                	li	t5,-15
    483a:	5854                	lw	a3,52(s0)
    483c:	4f5f 4646 4553      	0x455346464f5f
    4842:	2054                	fld	fa3,128(s0)
    4844:	0030                	addi	a2,sp,8
    4846:	5f5f 4e49 4d54      	0x4d544e495f5f
    484c:	5841                	li	a6,-16
    484e:	545f 5059 5f45      	0x5f455059545f
    4854:	205f 6f6c 676e      	0x676e6f6c205f
    485a:	6c20                	flw	fs0,88(s0)
    485c:	20676e6f          	jal	t3,7aa62 <_erodata+0x7a922>
    4860:	6e69                	lui	t3,0x1a
    4862:	0074                	addi	a3,sp,12
    4864:	5f5f 6972 6373      	0x637369725f5f
    486a:	2076                	fld	ft0,344(sp)
    486c:	0031                	c.nop	12
    486e:	5f5f 4244 5f4c      	0x5f4c42445f5f
    4874:	4f4e                	lw	t5,208(sp)
    4876:	4d52                	lw	s10,20(sp)
    4878:	4d5f 5841 5f5f      	0x5f5f58414d5f
    487e:	2820                	fld	fs0,80(s0)
    4880:	6428                	flw	fa0,72(s0)
    4882:	6c62756f          	jal	a0,2bf48 <_erodata+0x2be08>
    4886:	2965                	jal	4d3e <_erodata+0x4bfe>
    4888:	2e31                	jal	4ba4 <_erodata+0x4a64>
    488a:	36373937          	lui	s2,0x36373
    488e:	3339                	jal	459c <_erodata+0x445c>
    4890:	3331                	jal	459c <_erodata+0x445c>
    4892:	3834                	fld	fa3,112(s0)
    4894:	3236                	fld	ft4,360(sp)
    4896:	37353133          	0x37353133
    489a:	3830                	fld	fa2,112(s0)
    489c:	3431                	jal	42a8 <_erodata+0x4168>
    489e:	3235                	jal	41ca <_erodata+0x408a>
    48a0:	33323437          	lui	s0,0x33323
    48a4:	37313337          	lui	t1,0x37313
    48a8:	3430                	fld	fa2,104(s0)
    48aa:	65373533          	0x65373533
    48ae:	3830332b          	0x3830332b
    48b2:	294c                	fld	fa1,144(a0)
    48b4:	5f00                	lw	s0,56(a4)
    48b6:	495f 544e 414d      	0x414d544e495f
    48bc:	5f58                	lw	a4,60(a4)
    48be:	29632843          	fmadd.s	fa6,ft6,fs6,ft5,rdn
    48c2:	6320                	flw	fs0,64(a4)
    48c4:	2320                	fld	fs0,64(a4)
    48c6:	4c4c2023          	sw	tp,1216(s8) # 184c0 <_erodata+0x18380>
    48ca:	5f00                	lw	s0,56(a4)
    48cc:	495f 544e 4c5f      	0x4c5f544e495f
    48d2:	4145                	li	sp,17
    48d4:	36315453          	0x36315453
    48d8:	4d5f 5841 5f5f      	0x5f5f58414d5f
    48de:	3020                	fld	fs0,96(s0)
    48e0:	3778                	fld	fa4,232(a4)
    48e2:	6666                	flw	fa2,88(sp)
    48e4:	0066                	c.slli	zero,0x19
    48e6:	5f525343          	fmadd.q	ft6,ft4,fs5,fa1,unknown
    48ea:	5249                	li	tp,-14
    48ec:	5f51                	li	t5,-12
    48ee:	4550                	lw	a2,12(a0)
    48f0:	444e                	lw	s0,208(sp)
    48f2:	4e49                	li	t3,18
    48f4:	78302047          	fmsub.s	ft0,ft0,ft3,fa5,rdn
    48f8:	4346                	lw	t1,80(sp)
    48fa:	0030                	addi	a2,sp,8
    48fc:	4e49                	li	t3,18
    48fe:	5054                	lw	a3,36(s0)
    4900:	5254                	lw	a3,36(a2)
    4902:	4d5f 4e49 2820      	0x28204e494d5f
    4908:	5f2d                	li	t5,-21
    490a:	495f 544e 5450      	0x5450544e495f
    4910:	5f52                	lw	t5,52(sp)
    4912:	414d                	li	sp,19
    4914:	5f58                	lw	a4,60(a4)
    4916:	205f 202d 2931      	0x2931202d205f
    491c:	5f00                	lw	s0,56(a4)
    491e:	485f 5f57 4f43      	0x4f435f57485f
    4924:	4d4d                	li	s10,19
    4926:	485f4e4f          	fnmadd.s	ft8,ft10,ft5,fs1,rmm
    492a:	0020                	addi	s0,sp,8
    492c:	4e49                	li	t3,18
    492e:	3654                	fld	fa3,168(a2)
    4930:	5f34                	lw	a3,120(a4)
    4932:	494d                	li	s2,19
    4934:	204e                	fld	ft0,208(sp)
    4936:	2d28                	fld	fa0,88(a0)
    4938:	5f5f 4e49 3654      	0x36544e495f5f
    493e:	5f34                	lw	a3,120(a4)
    4940:	414d                	li	sp,19
    4942:	5f58                	lw	a4,60(a4)
    4944:	205f 202d 2931      	0x2931202d205f
    494a:	5f00                	lw	s0,56(a4)
    494c:	535f 5254 4e49      	0x4e495254535f
    4952:	29782847          	fmsub.s	fa6,fa6,fs7,ft5,rdn
    4956:	2320                	fld	fs0,64(a4)
    4958:	0078                	addi	a4,sp,12
    495a:	5f5f 4955 544e      	0x544e49555f5f
    4960:	3436                	fld	fs0,360(sp)
    4962:	545f 5059 5f45      	0x5f455059545f
    4968:	205f 6f6c 676e      	0x676e6f6c205f
    496e:	6c20                	flw	fs0,88(s0)
    4970:	20676e6f          	jal	t3,7ab76 <_erodata+0x7aa36>
    4974:	6e75                	lui	t3,0x1d
    4976:	6e676973          	csrrsi	s2,0x6e6,14
    497a:	6465                	lui	s0,0x19
    497c:	6920                	flw	fs0,80(a0)
    497e:	746e                	flw	fs0,248(sp)
    4980:	4900                	lw	s0,16(a0)
    4982:	544e                	lw	s0,240(sp)
    4984:	414d                	li	sp,19
    4986:	5f58                	lw	a4,60(a4)
    4988:	414d                	li	sp,19
    498a:	2058                	fld	fa4,128(s0)
    498c:	5f28                	lw	a0,120(a4)
    498e:	495f 544e 414d      	0x414d544e495f
    4994:	5f58                	lw	a4,60(a4)
    4996:	414d                	li	sp,19
    4998:	5f58                	lw	a4,60(a4)
    499a:	295f 5f00 465f      	0x465f5f00295f
    49a0:	544c                	lw	a1,44(s0)
    49a2:	5f583233          	0x5f583233
    49a6:	4148                	lw	a0,4(a0)
    49a8:	55515f53          	0x55515f53
    49ac:	4549                	li	a0,18
    49ae:	5f54                	lw	a3,60(a4)
    49b0:	414e                	lw	sp,208(sp)
    49b2:	5f4e                	lw	t5,240(sp)
    49b4:	205f 0031 5f5f      	0x5f5f0031205f
    49ba:	4244                	lw	s1,4(a2)
    49bc:	5f4c                	lw	a1,60(a4)
    49be:	414d                	li	sp,19
    49c0:	5f58                	lw	a4,60(a4)
    49c2:	3031                	jal	41ce <_erodata+0x408e>
    49c4:	455f 5058 5f5f      	0x5f5f5058455f
    49ca:	3320                	fld	fs0,96(a4)
    49cc:	3830                	fld	fa2,112(s0)
    49ce:	4300                	lw	s0,0(a4)
    49d0:	49464e4f          	fnmadd.s	ft8,fa2,fs4,fs1,rmm
    49d4:	4c505f47          	0x4c505f47
    49d8:	5441                	li	s0,-16
    49da:	4f46                	lw	t5,80(sp)
    49dc:	4d52                	lw	s10,20(sp)
    49de:	4e5f 4d41 2045      	0x20454d414e5f
    49e4:	6222                	flw	ft4,8(sp)
    49e6:	7465                	lui	s0,0xffff9
    49e8:	7572                	flw	fa0,60(sp)
    49ea:	64657473          	csrrci	s0,0x646,10
    49ee:	735f 636f 0022      	0x22636f735f
    49f4:	4e49                	li	t3,18
    49f6:	3854                	fld	fa3,176(s0)
    49f8:	4d5f 4e49 2820      	0x28204e494d5f
    49fe:	5f2d                	li	t5,-21
    4a00:	495f 544e 5f38      	0x5f38544e495f
    4a06:	414d                	li	sp,19
    4a08:	5f58                	lw	a4,60(a4)
    4a0a:	205f 202d 2931      	0x2931202d205f
    4a10:	6300                	flw	fs0,0(a4)
    4a12:	28637273          	csrrci	tp,0x286,6
    4a16:	6572                	flw	fa0,28(sp)
    4a18:	69622c67          	0x69622c67
    4a1c:	2974                	fld	fa3,208(a0)
    4a1e:	2820                	fld	fs0,80(s0)
    4a20:	6669207b          	0x6669207b
    4a24:	2820                	fld	fs0,80(s0)
    4a26:	5f5f 7562 6c69      	0x6c6975625f5f
    4a2c:	6974                	flw	fa3,84(a0)
    4a2e:	5f6e                	lw	t5,248(sp)
    4a30:	736e6f63          	bltu	t3,s6,516e <_erodata+0x502e>
    4a34:	6174                	flw	fa3,68(a0)
    4a36:	746e                	flw	fs0,248(sp)
    4a38:	705f 6228 7469      	0x74696228705f
    4a3e:	2029                	jal	4a48 <_erodata+0x4908>
    4a40:	2626                	fld	fa2,72(sp)
    4a42:	2820                	fld	fs0,80(s0)
    4a44:	6e75                	lui	t3,0x1d
    4a46:	6e676973          	csrrsi	s2,0x6e6,14
    4a4a:	6465                	lui	s0,0x19
    4a4c:	6c20                	flw	fs0,88(s0)
    4a4e:	29676e6f          	jal	t3,7ace4 <_erodata+0x7aba4>
    4a52:	6228                	flw	fa0,64(a2)
    4a54:	7469                	lui	s0,0xffffa
    4a56:	2029                	jal	4a60 <_erodata+0x4920>
    4a58:	203c                	fld	fa5,64(s0)
    4a5a:	20293233          	0x20293233
    4a5e:	7361                	lui	t1,0xffff8
    4a60:	206d                	jal	4b0a <_erodata+0x49ca>
    4a62:	6f76                	flw	ft10,92(sp)
    4a64:	616c                	flw	fa1,68(a0)
    4a66:	6974                	flw	fa3,84(a0)
    4a68:	656c                	flw	fa1,76(a0)
    4a6a:	2820                	fld	fs0,80(s0)
    4a6c:	6322                	flw	ft6,8(sp)
    4a6e:	63727273          	csrrci	tp,0x637,4
    4a72:	7820                	flw	fs0,112(s0)
    4a74:	2c30                	fld	fa2,88(s0)
    4a76:	2220                	fld	fs0,64(a2)
    4a78:	2320                	fld	fs0,64(a4)
    4a7a:	6572                	flw	fa0,28(sp)
    4a7c:	2c222067          	0x2c222067
    4a80:	2520                	fld	fs0,72(a0)
    4a82:	2230                	fld	fa2,64(a2)
    4a84:	3a20                	fld	fs0,112(a2)
    4a86:	203a                	fld	ft0,392(sp)
    4a88:	6922                	flw	fs2,8(sp)
    4a8a:	2822                	fld	fa6,8(sp)
    4a8c:	6962                	flw	fs2,24(sp)
    4a8e:	2974                	fld	fa3,208(a0)
    4a90:	3b29                	jal	47aa <_erodata+0x466a>
    4a92:	6520                	flw	fs0,72(a0)
    4a94:	736c                	flw	fa1,100(a4)
    4a96:	2065                	jal	4b3e <_erodata+0x49fe>
    4a98:	7361                	lui	t1,0xffff8
    4a9a:	206d                	jal	4b44 <_erodata+0x4a04>
    4a9c:	6f76                	flw	ft10,92(sp)
    4a9e:	616c                	flw	fa1,68(a0)
    4aa0:	6974                	flw	fa3,84(a0)
    4aa2:	656c                	flw	fa1,76(a0)
    4aa4:	2820                	fld	fs0,80(s0)
    4aa6:	6322                	flw	ft6,8(sp)
    4aa8:	63727273          	csrrci	tp,0x637,4
    4aac:	7820                	flw	fs0,112(s0)
    4aae:	2c30                	fld	fa2,88(s0)
    4ab0:	2220                	fld	fs0,64(a2)
    4ab2:	2320                	fld	fs0,64(a4)
    4ab4:	6572                	flw	fa0,28(sp)
    4ab6:	2c222067          	0x2c222067
    4aba:	2520                	fld	fs0,72(a0)
    4abc:	2230                	fld	fa2,64(a2)
    4abe:	3a20                	fld	fs0,112(a2)
    4ac0:	203a                	fld	ft0,392(sp)
    4ac2:	7222                	flw	ft4,40(sp)
    4ac4:	2822                	fld	fa6,8(sp)
    4ac6:	6962                	flw	fs2,24(sp)
    4ac8:	2974                	fld	fa3,208(a0)
    4aca:	3b29                	jal	47e4 <_erodata+0x46a4>
    4acc:	7d20                	flw	fs0,120(a0)
    4ace:	0029                	c.nop	10
    4ad0:	5f5f 4953 455a      	0x455a49535f5f
    4ad6:	465f464f          	fnmadd.q	fa2,ft10,ft5,fs0,rmm
    4ada:	4f4c                	lw	a1,28(a4)
    4adc:	5441                	li	s0,-16
    4ade:	5f5f 3420 4300      	0x430034205f5f
    4ae4:	49464e4f          	fnmadd.s	ft8,fa2,fs4,fs1,rmm
    4ae8:	50435f47          	fmsub.s	ft10,ft6,ft4,fa0,unknown
    4aec:	5f55                	li	t5,-11
    4aee:	4552                	lw	a0,20(sp)
    4af0:	5f544553          	0x5f544553
    4af4:	4441                	li	s0,16
    4af6:	5244                	lw	s1,36(a2)
    4af8:	3020                	fld	fs0,96(s0)
    4afa:	5f00                	lw	s0,56(a4)
    4afc:	425f 4749 4547      	0x45474749425f
    4b02:	415f5453          	0x415f5453
    4b06:	494c                	lw	a1,20(a0)
    4b08:	454d4e47          	0x454d4e47
    4b0c:	544e                	lw	s0,240(sp)
    4b0e:	5f5f 3120 0036      	0x3631205f5f
    4b14:	4e49                	li	t3,18
    4b16:	5f54                	lw	a3,60(a4)
    4b18:	4146                	lw	sp,80(sp)
    4b1a:	5f385453          	0x5f385453
    4b1e:	494d                	li	s2,19
    4b20:	204e                	fld	ft0,208(sp)
    4b22:	2d28                	fld	fa0,88(a0)
    4b24:	5f5f 4e49 5f54      	0x5f544e495f5f
    4b2a:	4146                	lw	sp,80(sp)
    4b2c:	5f385453          	0x5f385453
    4b30:	414d                	li	sp,19
    4b32:	5f58                	lw	a4,60(a4)
    4b34:	205f 202d 2931      	0x2931202d205f
    4b3a:	5f00                	lw	s0,56(a4)
    4b3c:	465f 544c 3231      	0x3231544c465f
    4b42:	5f38                	lw	a4,120(a4)
    4b44:	4544                	lw	s1,12(a0)
    4b46:	4f4e                	lw	t5,208(sp)
    4b48:	4d52                	lw	s10,20(sp)
    4b4a:	4d5f 4e49 5f5f      	0x5f5f4e494d5f
    4b50:	3620                	fld	fs0,104(a2)
    4b52:	342e                	fld	fs0,232(sp)
    4b54:	37313537          	lui	a0,0x37313
    4b58:	3135                	jal	4784 <_erodata+0x4644>
    4b5a:	3931                	jal	4776 <_erodata+0x4636>
    4b5c:	3334                	fld	fa3,96(a4)
    4b5e:	3038                	fld	fa4,96(s0)
    4b60:	3532                	fld	fa0,296(sp)
    4b62:	3131                	jal	476e <_erodata+0x462e>
    4b64:	3930                	fld	fa2,112(a0)
    4b66:	3432                	fld	fs0,296(sp)
    4b68:	3334                	fld	fa3,96(a4)
    4b6a:	3938                	fld	fa4,112(a0)
    4b6c:	3835                	jal	43a8 <_erodata+0x4268>
    4b6e:	3232                	fld	ft4,296(sp)
    4b70:	36343637          	lui	a2,0x36343
    4b74:	3535                	jal	49a0 <_erodata+0x4860>
    4b76:	2d65                	jal	522e <_erodata+0x50ee>
    4b78:	3934                	fld	fa3,112(a0)
    4b7a:	3636                	fld	fa2,360(sp)
    4b7c:	3146                	fld	ft2,112(sp)
    4b7e:	3832                	fld	fa6,296(sp)
    4b80:	4900                	lw	s0,16(a0)
    4b82:	544e                	lw	s0,240(sp)
    4b84:	465f 5341 3854      	0x38545341465f
    4b8a:	4d5f 5841 2820      	0x282058414d5f
    4b90:	5f5f 4e49 5f54      	0x5f544e495f5f
    4b96:	4146                	lw	sp,80(sp)
    4b98:	5f385453          	0x5f385453
    4b9c:	414d                	li	sp,19
    4b9e:	5f58                	lw	a4,60(a4)
    4ba0:	295f 5f00 495f      	0x495f5f00295f
    4ba6:	544e                	lw	s0,240(sp)
    4ba8:	465f 5341 3854      	0x38545341465f
    4bae:	575f 4449 4854      	0x48544449575f
    4bb4:	5f5f 3320 0032      	0x3233205f5f
    4bba:	5450                	lw	a2,44(s0)
    4bbc:	4452                	lw	s0,20(sp)
    4bbe:	4649                	li	a2,18
    4bc0:	5f46                	lw	t5,112(sp)
    4bc2:	494d                	li	s2,19
    4bc4:	204e                	fld	ft0,208(sp)
    4bc6:	2d28                	fld	fa0,88(a0)
    4bc8:	5450                	lw	a2,44(s0)
    4bca:	4452                	lw	s0,20(sp)
    4bcc:	4649                	li	a2,18
    4bce:	5f46                	lw	t5,112(sp)
    4bd0:	414d                	li	sp,19
    4bd2:	2058                	fld	fa4,128(s0)
    4bd4:	202d                	jal	4bfe <_erodata+0x4abe>
    4bd6:	2931                	jal	4ff2 <_erodata+0x4eb2>
    4bd8:	5f00                	lw	s0,56(a4)
    4bda:	465f 544c 4d5f      	0x4d5f544c465f
    4be0:	4e49                	li	t3,18
    4be2:	455f 5058 5f5f      	0x5f5f5058455f
    4be8:	2820                	fld	fs0,80(s0)
    4bea:	312d                	jal	4814 <_erodata+0x46d4>
    4bec:	3532                	fld	fa0,296(sp)
    4bee:	0029                	c.nop	10
    4bf0:	5f5f 4347 5f43      	0x5f4343475f5f
    4bf6:	5441                	li	s0,-16
    4bf8:	43494d4f          	fnmadd.d	fs10,fs2,fs4,fs0,rmm
    4bfc:	425f 4f4f 5f4c      	0x5f4c4f4f425f
    4c02:	4f4c                	lw	a1,28(a4)
    4c04:	465f4b43          	fmadd.q	fs6,ft10,ft5,fs0,rmm
    4c08:	4552                	lw	a0,20(sp)
    4c0a:	2045                	jal	4caa <_erodata+0x4b6a>
    4c0c:	0031                	c.nop	12
    4c0e:	5f5f 4c46 3154      	0x31544c465f5f
    4c14:	3832                	fld	fa6,296(sp)
    4c16:	4e5f 524f 5f4d      	0x5f4d524f4e5f
    4c1c:	414d                	li	sp,19
    4c1e:	5f58                	lw	a4,60(a4)
    4c20:	205f 2e31 3831      	0x38312e31205f
    4c26:	3739                	jal	4b34 <_erodata+0x49f4>
    4c28:	39343133          	0x39343133
    4c2c:	3335                	jal	4958 <_erodata+0x4818>
    4c2e:	3735                	jal	4b5a <_erodata+0x4a1a>
    4c30:	3332                	fld	ft6,296(sp)
    4c32:	3731                	jal	4b3e <_erodata+0x49fe>
    4c34:	3536                	fld	fa0,360(sp)
    4c36:	3830                	fld	fa2,112(s0)
    4c38:	3735                	jal	4b64 <_erodata+0x4a24>
    4c3a:	3935                	jal	4876 <_erodata+0x4736>
    4c3c:	36363233          	0x36363233
    4c40:	3832                	fld	fa6,296(sp)
    4c42:	3030                	fld	fa2,96(s0)
    4c44:	65323037          	lui	zero,0x65323
    4c48:	3339342b          	0x3339342b
    4c4c:	4632                	lw	a2,12(sp)
    4c4e:	3231                	jal	455a <_erodata+0x441a>
    4c50:	0038                	addi	a4,sp,8
    4c52:	4148                	lw	a0,4(a0)
    4c54:	4556                	lw	a0,84(sp)
    4c56:	535f 5250 4e49      	0x4e495250535f
    4c5c:	4654                	lw	a3,12(a2)
    4c5e:	3120                	fld	fs0,96(a0)
    4c60:	5f00                	lw	s0,56(a4)
    4c62:	455f 464c 5f5f      	0x5f5f464c455f
    4c68:	3120                	fld	fs0,96(a0)
    4c6a:	5f00                	lw	s0,56(a4)
    4c6c:	6e5f 5f6f 7562      	0x75625f6f6e5f
    4c72:	6c69                	lui	s8,0x1a
    4c74:	6974                	flw	fa3,84(a0)
    4c76:	206e                	fld	ft0,216(sp)
    4c78:	5f00                	lw	s0,56(a4)
    4c7a:	495f 544e 3233      	0x3233544e495f
    4c80:	435f 6328 2029      	0x20296328435f
    4c86:	23232063          	0x23232063
    4c8a:	4c20                	lw	s0,88(s0)
    4c8c:	5f00                	lw	s0,56(a4)
    4c8e:	4e49                	li	t3,18
    4c90:	3654                	fld	fa3,168(a2)
    4c92:	5f34                	lw	a3,120(a4)
    4c94:	5f54                	lw	a3,60(a4)
    4c96:	4544                	lw	s1,12(a0)
    4c98:	52414c43          	fmadd.d	fs8,ft2,ft4,fa0,rmm
    4c9c:	4445                	li	s0,17
    4c9e:	0020                	addi	s0,sp,8
    4ca0:	5f5f 4c46 3654      	0x36544c465f5f
    4ca6:	5834                	lw	a3,112(s0)
    4ca8:	445f 4345 4d49      	0x4d494345445f
    4cae:	4c41                	li	s8,16
    4cb0:	445f 4749 5f5f      	0x5f5f4749445f
    4cb6:	3320                	fld	fs0,96(a4)
    4cb8:	0036                	c.slli	zero,0xd
    4cba:	5f5f 4c46 3354      	0x33544c465f5f
    4cc0:	5832                	lw	a6,44(sp)
    4cc2:	4d5f 5841 315f      	0x315f58414d5f
    4cc8:	5f30                	lw	a2,120(a4)
    4cca:	5845                	li	a6,-15
    4ccc:	5f50                	lw	a2,60(a4)
    4cce:	205f 3033 0038      	0x383033205f
    4cd4:	5f5f 4955 544e      	0x544e49555f5f
    4cda:	5450                	lw	a2,44(s0)
    4cdc:	5f52                	lw	t5,52(sp)
    4cde:	414d                	li	sp,19
    4ce0:	5f58                	lw	a4,60(a4)
    4ce2:	205f 7830 6666      	0x66667830205f
    4ce8:	6666                	flw	fa2,88(sp)
    4cea:	6666                	flw	fa2,88(sp)
    4cec:	6666                	flw	fa2,88(sp)
    4cee:	0055                	c.nop	21
    4cf0:	5f5f 4244 5f4c      	0x5f4c42445f5f
    4cf6:	4148                	lw	a0,4(a0)
    4cf8:	45445f53          	0x45445f53
    4cfc:	4f4e                	lw	t5,208(sp)
    4cfe:	4d52                	lw	s10,20(sp)
    4d00:	5f5f 3120 5f00      	0x5f0031205f5f
    4d06:	465f 544c 3233      	0x3233544c465f
    4d0c:	5f58                	lw	a4,60(a4)
    4d0e:	4f4e                	lw	t5,208(sp)
    4d10:	4d52                	lw	s10,20(sp)
    4d12:	4d5f 5841 5f5f      	0x5f5f58414d5f
    4d18:	3120                	fld	fs0,96(a0)
    4d1a:	372e                	fld	fa4,232(sp)
    4d1c:	3739                	jal	4c2a <_erodata+0x4aea>
    4d1e:	3936                	fld	fs2,360(sp)
    4d20:	34333133          	0x34333133
    4d24:	3638                	fld	fa4,104(a2)
    4d26:	3332                	fld	ft6,296(sp)
    4d28:	3531                	jal	4b34 <_erodata+0x49f4>
    4d2a:	31383037          	lui	zero,0x31383
    4d2e:	3534                	fld	fa3,104(a0)
    4d30:	3732                	fld	fa4,296(sp)
    4d32:	3234                	fld	fa3,96(a2)
    4d34:	31333733          	0x31333733
    4d38:	33343037          	lui	zero,0x33343
    4d3c:	3735                	jal	4c68 <_erodata+0x4b28>
    4d3e:	2b65                	jal	52f6 <_erodata+0x51b6>
    4d40:	46383033          	0x46383033
    4d44:	00783233          	sltu	tp,a6,t2
    4d48:	4955                	li	s2,21
    4d4a:	544e                	lw	s0,240(sp)
    4d4c:	5f38                	lw	a4,120(a4)
    4d4e:	414d                	li	sp,19
    4d50:	2058                	fld	fa4,128(s0)
    4d52:	5f28                	lw	a0,120(a4)
    4d54:	555f 4e49 3854      	0x38544e49555f
    4d5a:	4d5f 5841 5f5f      	0x5f5f58414d5f
    4d60:	0029                	c.nop	10
    4d62:	5f5f 4c46 3354      	0x33544c465f5f
    4d68:	5f32                	lw	t5,44(sp)
    4d6a:	414d                	li	sp,19
    4d6c:	5f58                	lw	a4,60(a4)
    4d6e:	3031                	jal	457a <_erodata+0x443a>
    4d70:	455f 5058 5f5f      	0x5f5f5058455f
    4d76:	3320                	fld	fs0,96(a4)
    4d78:	0038                	addi	a4,sp,8
    4d7a:	5f474953          	0x5f474953
    4d7e:	5441                	li	s0,-16
    4d80:	43494d4f          	fnmadd.d	fs10,fs2,fs4,fs0,rmm
    4d84:	4d5f 4e49 2820      	0x28204e494d5f
    4d8a:	5f2d                	li	t5,-21
    4d8c:	535f 4454 4e49      	0x4e494454535f
    4d92:	5f54                	lw	a3,60(a4)
    4d94:	5845                	li	a6,-15
    4d96:	2850                	fld	fa2,144(s0)
    4d98:	4e49                	li	t3,18
    4d9a:	5f54                	lw	a3,60(a4)
    4d9c:	414d                	li	sp,19
    4d9e:	2958                	fld	fa4,144(a0)
    4da0:	2d20                	fld	fs0,88(a0)
    4da2:	3120                	fld	fs0,96(a0)
    4da4:	0029                	c.nop	10
    4da6:	5f5f 6c61 6769      	0x67696c615f5f
    4dac:	5f6e                	lw	t5,248(sp)
    4dae:	6f64                	flw	fs1,92(a4)
    4db0:	78286e77          	0x78286e77
    4db4:	792c                	flw	fa1,112(a0)
    4db6:	2029                	jal	4dc0 <_erodata+0x4c80>
    4db8:	5f5f 7562 6c69      	0x6c6975625f5f
    4dbe:	6974                	flw	fa3,84(a0)
    4dc0:	5f6e                	lw	t5,248(sp)
    4dc2:	6c61                	lui	s8,0x18
    4dc4:	6769                	lui	a4,0x1a
    4dc6:	5f6e                	lw	t5,248(sp)
    4dc8:	6f64                	flw	fs1,92(a4)
    4dca:	78286e77          	0x78286e77
    4dce:	202c                	fld	fa1,64(s0)
    4dd0:	2979                	jal	526e <_erodata+0x512e>
    4dd2:	5f00                	lw	s0,56(a4)
    4dd4:	465f 544c 3436      	0x3436544c465f
    4dda:	445f 4e45 524f      	0x524f4e45445f
    4de0:	5f4d                	li	t5,-13
    4de2:	494d                	li	s2,19
    4de4:	5f4e                	lw	t5,240(sp)
    4de6:	205f 2e34 3439      	0x34392e34205f
    4dec:	3630                	fld	fa2,104(a2)
    4dee:	3635                	jal	491a <_erodata+0x47da>
    4df0:	3534                	fld	fa3,104(a0)
    4df2:	3438                	fld	fa4,104(s0)
    4df4:	3231                	jal	4700 <_erodata+0x45c0>
    4df6:	3634                	fld	fa3,104(a2)
    4df8:	3435                	jal	4824 <_erodata+0x46e4>
    4dfa:	3134                	fld	fa3,96(a0)
    4dfc:	36353637          	lui	a2,0x36353
    4e00:	3738                	fld	fa4,104(a4)
    4e02:	3239                	jal	4710 <_erodata+0x45d0>
    4e04:	3638                	fld	fa4,104(a2)
    4e06:	3238                	fld	fa4,96(a2)
    4e08:	3132                	fld	ft2,296(sp)
    4e0a:	65323733          	0x65323733
    4e0e:	332d                	jal	4b38 <_erodata+0x49f8>
    4e10:	3432                	fld	fs0,296(sp)
    4e12:	3646                	fld	fa2,112(sp)
    4e14:	0034                	addi	a3,sp,8
    4e16:	5f5f 4e49 5f54      	0x5f544e495f5f
    4e1c:	454c                	lw	a1,12(a0)
    4e1e:	5341                	li	t1,-16
    4e20:	3354                	fld	fa3,160(a4)
    4e22:	5f32                	lw	t5,44(sp)
    4e24:	414d                	li	sp,19
    4e26:	5f58                	lw	a4,60(a4)
    4e28:	205f 7830 6637      	0x66377830205f
    4e2e:	6666                	flw	fa2,88(sp)
    4e30:	6666                	flw	fa2,88(sp)
    4e32:	6666                	flw	fa2,88(sp)
    4e34:	004c                	addi	a1,sp,4
    4e36:	5f5f 444c 4c42      	0x4c42444c5f5f
    4e3c:	4d5f 5841 315f      	0x315f58414d5f
    4e42:	5f30                	lw	a2,120(a4)
    4e44:	5845                	li	a6,-15
    4e46:	5f50                	lw	a2,60(a4)
    4e48:	205f 3934 3233      	0x32333934205f
    4e4e:	4300                	lw	s0,0(a4)
    4e50:	555f5253          	0x555f5253
    4e54:	5241                	li	tp,-16
    4e56:	5f54                	lw	a3,60(a4)
    4e58:	5645                	li	a2,-15
    4e5a:	535f 4154 5554      	0x55544154535f
    4e60:	58545f53          	0x58545f53
    4e64:	4f5f 4646 4553      	0x455346464f5f
    4e6a:	2054                	fld	fa3,128(s0)
    4e6c:	0030                	addi	a2,sp,8
    4e6e:	5f5f 4c46 3354      	0x33544c465f5f
    4e74:	5f32                	lw	t5,44(sp)
    4e76:	414d                	li	sp,19
    4e78:	5f58                	lw	a4,60(a4)
    4e7a:	205f 2e33 3034      	0x30342e33205f
    4e80:	3832                	fld	fa6,296(sp)
    4e82:	3332                	fld	ft6,296(sp)
    4e84:	3634                	fld	fa3,104(a2)
    4e86:	3336                	fld	ft6,360(sp)
    4e88:	3538                	fld	fa4,104(a0)
    4e8a:	3832                	fld	fa6,296(sp)
    4e8c:	3538                	fld	fa4,104(a0)
    4e8e:	3839                	jal	46ac <_erodata+0x456c>
    4e90:	3131                	jal	4a9c <_erodata+0x495c>
    4e92:	31343037          	lui	zero,0x31343
    4e96:	3338                	fld	fa4,96(a4)
    4e98:	3834                	fld	fa3,112(s0)
    4e9a:	3534                	fld	fa3,104(a0)
    4e9c:	3631                	jal	49a8 <_erodata+0x4868>
    4e9e:	3239                	jal	47ac <_erodata+0x466c>
    4ea0:	6535                	lui	a0,0xd
    4ea2:	4638332b          	0x4638332b
    4ea6:	5f003233          	0x5f003233
    4eaa:	445f 4c42 455f      	0x455f4c42445f
    4eb0:	5350                	lw	a2,36(a4)
    4eb2:	4c49                	li	s8,18
    4eb4:	5f5f4e4f          	fnmadd.q	ft8,ft10,fs5,fa1,rmm
    4eb8:	2820                	fld	fs0,80(s0)
    4eba:	6428                	flw	fa0,72(s0)
    4ebc:	6c62756f          	jal	a0,2c582 <_erodata+0x2c442>
    4ec0:	2965                	jal	5378 <_erodata+0x5238>
    4ec2:	2e32                	fld	ft8,264(sp)
    4ec4:	3232                	fld	ft4,296(sp)
    4ec6:	3430                	fld	fa2,104(s0)
    4ec8:	3634                	fld	fa3,104(a2)
    4eca:	3430                	fld	fa2,104(s0)
    4ecc:	3239                	jal	47da <_erodata+0x469a>
    4ece:	3035                	jal	46fa <_erodata+0x45ba>
    4ed0:	30333133          	0x30333133
    4ed4:	3038                	fld	fa4,96(s0)
    4ed6:	3438                	fld	fa4,104(s0)
    4ed8:	33363237          	lui	tp,0x33363
    4edc:	31363333          	0x31363333
    4ee0:	3138                	fld	fa4,96(a0)
    4ee2:	3436                	fld	fs0,360(sp)
    4ee4:	3630                	fld	fa2,104(a2)
    4ee6:	6532                	flw	fa0,12(sp)
    4ee8:	312d                	jal	4b12 <_erodata+0x49d2>
    4eea:	4c36                	lw	s8,76(sp)
    4eec:	0029                	c.nop	10
    4eee:	425f 4745 4e49      	0x4e494745425f
    4ef4:	535f 4454 435f      	0x435f4454535f
    4efa:	0020                	addi	s0,sp,8
    4efc:	5f5f 5250 4741      	0x474152505f5f
    4f02:	414d                	li	sp,19
    4f04:	525f 4445 4645      	0x46454445525f
    4f0a:	4e49                	li	t3,18
    4f0c:	5f45                	li	t5,-15
    4f0e:	5845                	li	a6,-15
    4f10:	4e54                	lw	a3,28(a2)
    4f12:	4d41                	li	s10,16
    4f14:	2045                	jal	4fb4 <_erodata+0x4e74>
    4f16:	0031                	c.nop	12
    4f18:	5f5f 4953 5f47      	0x5f4749535f5f
    4f1e:	5441                	li	s0,-16
    4f20:	43494d4f          	fnmadd.d	fs10,fs2,fs4,fs0,rmm
    4f24:	545f 5059 5f45      	0x5f455059545f
    4f2a:	205f 6e69 0074      	0x746e69205f
    4f30:	4955                	li	s2,21
    4f32:	544e                	lw	s0,240(sp)
    4f34:	4c5f 4145 5453      	0x545341454c5f
    4f3a:	4d5f3233          	0x4d5f3233
    4f3e:	5841                	li	a6,-16
    4f40:	2820                	fld	fs0,80(s0)
    4f42:	5f5f 4955 544e      	0x544e49555f5f
    4f48:	4c5f 4145 5453      	0x545341454c5f
    4f4e:	4d5f3233          	0x4d5f3233
    4f52:	5841                	li	a6,-16
    4f54:	5f5f 0029 5f5f      	0x5f5f00295f5f
    4f5a:	4c46                	lw	s8,80(sp)
    4f5c:	3154                	fld	fa3,160(a0)
    4f5e:	3832                	fld	fa6,296(sp)
    4f60:	485f 5341 445f      	0x445f5341485f
    4f66:	4e45                	li	t3,17
    4f68:	5f4d524f          	fnmadd.q	ft4,fs10,fs4,fa1,unknown
    4f6c:	205f 0031 5f5f      	0x5f5f0031205f
    4f72:	43554e47          	fmsub.d	ft8,fa0,fs5,fs0,rmm
    4f76:	494c                	lw	a1,20(a0)
    4f78:	505f454b          	fnmsub.s	fa0,ft10,ft5,fa0,rmm
    4f7c:	4152                	lw	sp,20(sp)
    4f7e:	5f414d47          	fmsub.q	fs10,ft2,fs4,fa1,rmm
    4f82:	4944                	lw	s1,20(a0)
    4f84:	4741                	li	a4,16
    4f86:	4f4e                	lw	t5,208(sp)
    4f88:	43495453          	0x43495453
    4f8c:	3120                	fld	fs0,96(a0)
    4f8e:	4900                	lw	s0,16(a0)
    4f90:	544e                	lw	s0,240(sp)
    4f92:	3631                	jal	4a9e <_erodata+0x495e>
    4f94:	4d5f 4e49 2820      	0x28204e494d5f
    4f9a:	5f2d                	li	t5,-21
    4f9c:	495f 544e 3631      	0x3631544e495f
    4fa2:	4d5f 5841 5f5f      	0x5f5f58414d5f
    4fa8:	2d20                	fld	fs0,88(a0)
    4faa:	3120                	fld	fs0,96(a0)
    4fac:	0029                	c.nop	10
    4fae:	5f5f 444c 4c42      	0x4c42444c5f5f
    4fb4:	485f 5341 445f      	0x445f5341485f
    4fba:	4e45                	li	t3,17
    4fbc:	5f4d524f          	fnmadd.q	ft4,fs10,fs4,fa1,unknown
    4fc0:	205f 0031 4f43      	0x4f430031205f
    4fc6:	464e                	lw	a2,208(sp)
    4fc8:	4749                	li	a4,18
    4fca:	435f 5550 495f      	0x495f5550435f
    4fd0:	544e                	lw	s0,240(sp)
    4fd2:	5245                	li	tp,-15
    4fd4:	5552                	lw	a0,52(sp)
    4fd6:	5450                	lw	a2,44(s0)
    4fd8:	00312053          	fadd.s	ft0,ft2,ft3,rdn
    4fdc:	5f5f 4244 5f4c      	0x5f4c42445f5f
    4fe2:	4944                	lw	s1,20(a0)
    4fe4:	205f5f47          	fmsub.s	ft10,ft10,ft5,ft4,unknown
    4fe8:	3531                	jal	4df4 <_erodata+0x4cb4>
    4fea:	6300                	flw	fs0,0(a4)
    4fec:	28737273          	csrrci	tp,0x287,6
    4ff0:	6572                	flw	fa0,28(sp)
    4ff2:	69622c67          	0x69622c67
    4ff6:	2974                	fld	fa3,208(a0)
    4ff8:	2820                	fld	fs0,80(s0)
    4ffa:	6669207b          	0x6669207b
    4ffe:	2820                	fld	fs0,80(s0)
    5000:	5f5f 7562 6c69      	0x6c6975625f5f
    5006:	6974                	flw	fa3,84(a0)
    5008:	5f6e                	lw	t5,248(sp)
    500a:	736e6f63          	bltu	t3,s6,5748 <_erodata+0x5608>
    500e:	6174                	flw	fa3,68(a0)
    5010:	746e                	flw	fs0,248(sp)
    5012:	705f 6228 7469      	0x74696228705f
    5018:	2029                	jal	5022 <_erodata+0x4ee2>
    501a:	2626                	fld	fa2,72(sp)
    501c:	2820                	fld	fs0,80(s0)
    501e:	6e75                	lui	t3,0x1d
    5020:	6e676973          	csrrsi	s2,0x6e6,14
    5024:	6465                	lui	s0,0x19
    5026:	6c20                	flw	fs0,88(s0)
    5028:	29676e6f          	jal	t3,7b2be <_erodata+0x7b17e>
    502c:	6228                	flw	fa0,64(a2)
    502e:	7469                	lui	s0,0xffffa
    5030:	2029                	jal	503a <_erodata+0x4efa>
    5032:	203c                	fld	fa5,64(s0)
    5034:	20293233          	0x20293233
    5038:	7361                	lui	t1,0xffff8
    503a:	206d                	jal	50e4 <_erodata+0x4fa4>
    503c:	6f76                	flw	ft10,92(sp)
    503e:	616c                	flw	fa1,68(a0)
    5040:	6974                	flw	fa3,84(a0)
    5042:	656c                	flw	fa1,76(a0)
    5044:	2820                	fld	fs0,80(s0)
    5046:	6322                	flw	ft6,8(sp)
    5048:	73727273          	csrrci	tp,0x737,4
    504c:	7820                	flw	fs0,112(s0)
    504e:	2c30                	fld	fa2,88(s0)
    5050:	2220                	fld	fs0,64(a2)
    5052:	2320                	fld	fs0,64(a4)
    5054:	6572                	flw	fa0,28(sp)
    5056:	2c222067          	0x2c222067
    505a:	2520                	fld	fs0,72(a0)
    505c:	2230                	fld	fa2,64(a2)
    505e:	3a20                	fld	fs0,112(a2)
    5060:	203a                	fld	ft0,392(sp)
    5062:	6922                	flw	fs2,8(sp)
    5064:	2822                	fld	fa6,8(sp)
    5066:	6962                	flw	fs2,24(sp)
    5068:	2974                	fld	fa3,208(a0)
    506a:	3b29                	jal	4d84 <_erodata+0x4c44>
    506c:	6520                	flw	fs0,72(a0)
    506e:	736c                	flw	fa1,100(a4)
    5070:	2065                	jal	5118 <_erodata+0x4fd8>
    5072:	7361                	lui	t1,0xffff8
    5074:	206d                	jal	511e <_erodata+0x4fde>
    5076:	6f76                	flw	ft10,92(sp)
    5078:	616c                	flw	fa1,68(a0)
    507a:	6974                	flw	fa3,84(a0)
    507c:	656c                	flw	fa1,76(a0)
    507e:	2820                	fld	fs0,80(s0)
    5080:	6322                	flw	ft6,8(sp)
    5082:	73727273          	csrrci	tp,0x737,4
    5086:	7820                	flw	fs0,112(s0)
    5088:	2c30                	fld	fa2,88(s0)
    508a:	2220                	fld	fs0,64(a2)
    508c:	2320                	fld	fs0,64(a4)
    508e:	6572                	flw	fa0,28(sp)
    5090:	2c222067          	0x2c222067
    5094:	2520                	fld	fs0,72(a0)
    5096:	2230                	fld	fa2,64(a2)
    5098:	3a20                	fld	fs0,112(a2)
    509a:	203a                	fld	ft0,392(sp)
    509c:	7222                	flw	ft4,40(sp)
    509e:	2822                	fld	fa6,8(sp)
    50a0:	6962                	flw	fs2,24(sp)
    50a2:	2974                	fld	fa3,208(a0)
    50a4:	3b29                	jal	4dbe <_erodata+0x4c7e>
    50a6:	7d20                	flw	fs0,120(a0)
    50a8:	0029                	c.nop	10
    50aa:	5f5f 4c46 5f54      	0x5f544c465f5f
    50b0:	4148                	lw	a0,4(a0)
    50b2:	45445f53          	0x45445f53
    50b6:	4f4e                	lw	t5,208(sp)
    50b8:	4d52                	lw	s10,20(sp)
    50ba:	5f5f 3120 5f00      	0x5f0031205f5f
    50c0:	495f 544e 465f      	0x465f544e495f
    50c6:	5341                	li	t1,-16
    50c8:	3654                	fld	fa3,168(a2)
    50ca:	5f34                	lw	a3,120(a4)
    50cc:	54444957          	0x54444957
    50d0:	5f48                	lw	a0,60(a4)
    50d2:	205f 3436 5f00      	0x5f003436205f
    50d8:	445f 4c42 445f      	0x445f4c42445f
    50de:	4345                	li	t1,17
    50e0:	4d49                	li	s10,18
    50e2:	4c41                	li	s8,16
    50e4:	445f 4749 5f5f      	0x5f5f4749445f
    50ea:	3120                	fld	fs0,96(a0)
    50ec:	          	lui	zero,0x0

Disassembly of section .debug_loc:

00000000 <.debug_loc>:
  j crt_init
   0:	0130                	addi	a2,sp,136
   2:	0000                	unimp
  nop
   4:	0134                	addi	a3,sp,136
   6:	0000                	unimp
  nop
   8:	0006                	c.slli	zero,0x1
   a:	049e                	slli	s1,s1,0x7
  nop
   c:	0004                	0x4
   e:	f000                	fsw	fs0,32(s0)
	...
  nop
  18:	0138                	addi	a4,sp,136
  1a:	0000                	unimp
  nop
  1c:	013c                	addi	a5,sp,136
  1e:	0000                	unimp
  sw x1,  - 1*4(sp)
  20:	41080003          	lb	zero,1040(a6) # 32313410 <_fstack+0x2230b410>
  sw x5,  - 2*4(sp)
  24:	009f 0000 0000      	0x9f
  sw x6,  - 3*4(sp)
  2a:	0000                	unimp
  sw x7,  - 4*4(sp)
  2c:	3800                	fld	fs0,48(s0)
  2e:	0001                	nop
  sw x10, - 5*4(sp)
  30:	3c00                	fld	fs0,56(s0)
  32:	0001                	nop
  sw x11, - 6*4(sp)
  34:	0500                	addi	s0,sp,640
  36:	4000                	lw	s0,0(s0)
  sw x12, - 7*4(sp)
  38:	2448                	fld	fa0,136(s0)
  3a:	9f1f 0000 0000      	0x9f1f
  sw x14, - 9*4(sp)
  40:	0000                	unimp
	...

Disassembly of section .debug_ranges:

00000000 <.debug_ranges>:
  j crt_init
   0:	0128                	addi	a0,sp,136
   2:	0000                	unimp
  nop
   4:	012c                	addi	a1,sp,136
   6:	0000                	unimp
  nop
   8:	0130                	addi	a2,sp,136
   a:	0000                	unimp
  nop
   c:	0134                	addi	a3,sp,136
	...
  nop
  16:	0000                	unimp
  nop
  18:	012c                	addi	a1,sp,136
  1a:	0000                	unimp
  nop
  1c:	0130                	addi	a2,sp,136
  1e:	0000                	unimp
  sw x1,  - 1*4(sp)
  20:	0138                	addi	a4,sp,136
  22:	0000                	unimp
  sw x5,  - 2*4(sp)
  24:	013c                	addi	a5,sp,136
	...
  sw x7,  - 4*4(sp)
  2e:	0000                	unimp
  sw x10, - 5*4(sp)
  30:	012c                	addi	a1,sp,136
  32:	0000                	unimp
  sw x11, - 6*4(sp)
  34:	0130                	addi	a2,sp,136
  36:	0000                	unimp
  sw x12, - 7*4(sp)
  38:	0138                	addi	a4,sp,136
  3a:	0000                	unimp
  sw x13, - 8*4(sp)
  3c:	013c                	addi	a5,sp,136
	...
  sw x15, -10*4(sp)
  46:	0000                	unimp
  sw x16, -11*4(sp)
  48:	0124                	addi	s1,sp,136
  4a:	0000                	unimp
  sw x17, -12*4(sp)
  4c:	0128                	addi	a0,sp,136
  4e:	0000                	unimp
  sw x28, -13*4(sp)
  50:	0128                	addi	a0,sp,136
  52:	0000                	unimp
  sw x29, -14*4(sp)
  54:	0140                	addi	s0,sp,132
	...

Disassembly of section .debug_macro:

00000000 <.debug_macro>:
  j crt_init
       0:	0004                	0x4
       2:	0d02                	c.slli64	s10
  nop
       4:	0002                	c.slli64	zero
       6:	0700                	addi	s0,sp,896
  nop
       8:	000000b3          	add	ra,zero,zero
  nop
       c:	03010003          	lb	zero,48(sp) # 10011050 <_fstack+0x9050>
  nop
      10:	0301                	addi	t1,t1,0
      12:	07060903          	lb	s2,112(a2) # 36353070 <_fstack+0x2634b070>
  nop
      16:	000007b3          	add	a5,zero,zero
  nop
      1a:	0504                	addi	s1,sp,640
  nop
      1c:	003ebd0b          	0x3ebd0b
  sw x1,  - 1*4(sp)
      20:	0300                	addi	s0,sp,384
      22:	070c                	addi	a1,sp,896
  sw x5,  - 2*4(sp)
      24:	0a05                	addi	s4,s4,1
      26:	1355                	addi	t1,t1,-11
  sw x6,  - 3*4(sp)
      28:	0000                	unimp
      2a:	05080c03          	lb	s8,80(a6)
  sw x7,  - 4*4(sp)
      2e:	000aa22b          	0xaa22b
  sw x10, - 5*4(sp)
      32:	0300                	addi	s0,sp,384
  sw x11, - 6*4(sp)
      34:	092d                	addi	s2,s2,11
      36:	1e05                	addi	t3,t3,-31
  sw x12, - 7*4(sp)
      38:	0440                	addi	s0,sp,516
      3a:	0000                	unimp
  sw x13, - 8*4(sp)
      3c:	030a2003          	lw	zero,48(s4) # ffffa030 <_fstack+0xefff2030>
  sw x14, - 9*4(sp)
      40:	0b0c                	addi	a1,sp,400
      42:	1605                	addi	a2,a2,-31
  sw x15, -10*4(sp)
      44:	159d                	addi	a1,a1,-25
      46:	0000                	unimp
  sw x16, -11*4(sp)
      48:	070c1c03          	lh	s8,112(s8) # 18070 <_erodata+0x17f30>
  sw x17, -12*4(sp)
      4c:	0000083b          	0x83b
  sw x28, -13*4(sp)
      50:	0704                	addi	s1,sp,896
      52:	085d                	addi	a6,a6,23
  sw x29, -14*4(sp)
      54:	0000                	unimp
      56:	0704                	addi	s1,sp,896
  sw x30, -15*4(sp)
      58:	08f9                	addi	a7,a7,30
      5a:	0000                	unimp
  sw x31, -16*4(sp)
      5c:	0704                	addi	s1,sp,896
      5e:	092d                	addi	s2,s2,11
  addi sp,sp,-16*4
      60:	0000                	unimp
      62:	0304                	addi	s1,sp,384
  call isr
      64:	042e                	slli	s0,s0,0xb
      66:	00098507          	0x98507
  lw x1 , 15*4(sp)
      6a:	0400                	addi	s0,sp,512
  lw x5,  14*4(sp)
      6c:	0009e007          	0x9e007
  lw x6,  13*4(sp)
      70:	0400                	addi	s0,sp,512
      72:	07050e03          	lb	t3,112(a0) # d070 <_erodata+0xcf30>
  lw x7,  12*4(sp)
      76:	0c2c                	addi	a1,sp,536
  lw x10, 11*4(sp)
      78:	0000                	unimp
      7a:	0304                	addi	s1,sp,384
  lw x11, 10*4(sp)
      7c:	96070d0f          	0x96070d0f
  lw x12,  9*4(sp)
      80:	000c                	0xc
      82:	0400                	addi	s0,sp,512
  lw x13,  8*4(sp)
      84:	000d9907          	0xd9907
  lw x14,  7*4(sp)
      88:	0400                	addi	s0,sp,512
      8a:	050e0d03          	lb	s10,80(t3) # 1d050 <_erodata+0x1cf10>
  lw x15,  6*4(sp)
      8e:	e502                	fsw	ft0,136(sp)
  lw x16,  5*4(sp)
      90:	03000007          	0x3000007
  lw x17,  4*4(sp)
      94:	0f04                	addi	s1,sp,912
      96:	000f7707          	0xf7707
  lw x28,  3*4(sp)
      9a:	0400                	addi	s0,sp,512
  lw x29,  2*4(sp)
      9c:	000f9907          	0xf9907
  lw x30,  1*4(sp)
      a0:	0400                	addi	s0,sp,512
      a2:	07020f03          	lb	t5,112(tp) # 33363070 <_fstack+0x2335b070>
  lw x31,  0*4(sp)
      a6:	0fb5                	addi	t6,t6,13
  addi sp,sp,16*4
      a8:	0000                	unimp
      aa:	0704                	addi	s1,sp,896
  mret
      ac:	0ff1                	addi	t6,t6,28
      ae:	0000                	unimp
  la sp, _fstack
      b0:	0404                	addi	s1,sp,512
      b2:	0400                	addi	s0,sp,512
      b4:	0000                	unimp
      b6:	0005                	c.nop	1
  la a0, trap_entry
      b8:	00002c0b          	0x2c0b
      bc:	0005                	c.nop	1
      be:	40c9                	li	ra,18
  csrw mtvec, a0
      c0:	0000                	unimp
      c2:	0005                	c.nop	1
  la a0, _fdata
      c4:	2f36                	fld	ft10,328(sp)
      c6:	0000                	unimp
      c8:	0005                	c.nop	1
      ca:	1004                	addi	s1,sp,32
  la a1, _edata
      cc:	0000                	unimp
      ce:	0005                	c.nop	1
      d0:	41f8                	lw	a4,68(a1)
      d2:	0000                	unimp
  la a2, _fdata_rom
      d4:	0005                	c.nop	1
      d6:	1565                	addi	a0,a0,-7
  beq a0,a1,data_done
      d8:	0000                	unimp
      da:	0005                	c.nop	1
  lw a3,0(a2)
      dc:	0794                	addi	a3,sp,960
      de:	0000                	unimp
  sw a3,0(a0)
      e0:	0005                	c.nop	1
      e2:	2d99                	jal	738 <_erodata+0x5f8>
  add a0,a0,4
      e4:	0000                	unimp
      e6:	0005                	c.nop	1
  add a2,a2,4
      e8:	2565                	jal	790 <_erodata+0x650>
      ea:	0000                	unimp
  j data_loop
      ec:	0005                	c.nop	1
      ee:	1126                	slli	sp,sp,0x29
  la a0, _fbss
      f0:	0000                	unimp
      f2:	0005                	c.nop	1
      f4:	0b0c                	addi	a1,sp,400
      f6:	0000                	unimp
  la a1, _ebss
      f8:	0005                	c.nop	1
      fa:	34cd                	jal	fffffbdc <_fstack+0xefff7bdc>
      fc:	0000                	unimp
      fe:	0005                	c.nop	1
  beq a0,a1,bss_done
     100:	0a38                	addi	a4,sp,280
     102:	0000                	unimp
  sw zero,0(a0)
     104:	0005                	c.nop	1
     106:	4365                	li	t1,25
  add a0,a0,4
     108:	0000                	unimp
     10a:	0005                	c.nop	1
  j bss_loop
     10c:	2c99                	jal	362 <_erodata+0x222>
     10e:	0000                	unimp
  li a0, 0x880  //880 enable timer + external interrupt sources (until mstatus.MIE is set, they will never trigger an interrupt)
     110:	0005                	c.nop	1
     112:	000046a7          	fsq	ft0,13(zero) # d <__DYNAMIC+0xd>
     116:	0005                	c.nop	1
  csrw mie,a0
     118:	00000adb          	0xadb
  call main
     11c:	0005                	c.nop	1
     11e:	2880                	fld	fs0,16(s1)
  j infinit_loop
     120:	0000                	unimp
     122:	0005                	c.nop	1
}
     124:	4816                	lw	a6,68(sp)
     126:	0000                	unimp
	return MMPTR(a);
     128:	0005                	c.nop	1
     12a:	2c32                	fld	fs8,264(sp)
	MMPTR(a) = v;
     12c:	0000                	unimp
     12e:	0005                	c.nop	1
	return MMPTR(a);
     130:	3d38                	fld	fa4,120(a0)
     132:	0000                	unimp
    while (uart_txfull_read());      // Wait until TX FIFO not full
     134:	0005                	c.nop	1
     136:	0d94                	addi	a3,sp,720
	MMPTR(a) = v;
     138:	0000                	unimp
     13a:	0005                	c.nop	1
     13c:	4ad0                	lw	a2,20(a3)
     13e:	0000                	unimp
     140:	0005                	c.nop	1
     142:	2d85                	jal	7b2 <_erodata+0x672>
     144:	0000                	unimp
     146:	0005                	c.nop	1
     148:	177d                	addi	a4,a4,-1
     14a:	0000                	unimp
     14c:	0005                	c.nop	1
     14e:	08bc                	addi	a5,sp,88
     150:	0000                	unimp
     152:	0005                	c.nop	1
     154:	000027eb          	0x27eb
     158:	0005                	c.nop	1
     15a:	00004afb          	0x4afb
     15e:	0005                	c.nop	1
     160:	1a5c                	addi	a5,sp,308
     162:	0000                	unimp
     164:	0005                	c.nop	1
     166:	0979                	addi	s2,s2,30
     168:	0000                	unimp
     16a:	0005                	c.nop	1
     16c:	3755                	jal	110 <bss_done>
     16e:	0000                	unimp
     170:	0005                	c.nop	1
     172:	0f35                	addi	t5,t5,13
     174:	0000                	unimp
     176:	0005                	c.nop	1
     178:	000033b7          	lui	t2,0x3
     17c:	0005                	c.nop	1
     17e:	3ea8                	fld	fa0,120(a3)
     180:	0000                	unimp
     182:	0005                	c.nop	1
     184:	4529                	li	a0,10
     186:	0000                	unimp
     188:	0005                	c.nop	1
     18a:	00000a4b          	fnmsub.s	fs4,ft0,ft0,ft0,rne
     18e:	0005                	c.nop	1
     190:	15d1                	addi	a1,a1,-12
     192:	0000                	unimp
     194:	0005                	c.nop	1
     196:	2ce9                	jal	470 <_erodata+0x330>
     198:	0000                	unimp
     19a:	0005                	c.nop	1
     19c:	4846                	lw	a6,80(sp)
     19e:	0000                	unimp
     1a0:	0005                	c.nop	1
     1a2:	00003633          	snez	a2,zero
     1a6:	0005                	c.nop	1
     1a8:	08d0                	addi	a2,sp,84
     1aa:	0000                	unimp
     1ac:	0005                	c.nop	1
     1ae:	34e0                	fld	fs0,232(s1)
     1b0:	0000                	unimp
     1b2:	0005                	c.nop	1
     1b4:	4f18                	lw	a4,24(a4)
     1b6:	0000                	unimp
     1b8:	0005                	c.nop	1
     1ba:	3ab6                	fld	fs5,360(sp)
     1bc:	0000                	unimp
     1be:	0005                	c.nop	1
     1c0:	0a89                	addi	s5,s5,2
     1c2:	0000                	unimp
     1c4:	0005                	c.nop	1
     1c6:	3916                	fld	fs2,352(sp)
     1c8:	0000                	unimp
     1ca:	0005                	c.nop	1
     1cc:	2e30                	fld	fa2,88(a2)
     1ce:	0000                	unimp
     1d0:	0005                	c.nop	1
     1d2:	00003d67          	0x3d67
     1d6:	0005                	c.nop	1
     1d8:	1e6e                	slli	t3,t3,0x3b
     1da:	0000                	unimp
     1dc:	0005                	c.nop	1
     1de:	3e5e                	fld	ft8,496(sp)
     1e0:	0000                	unimp
     1e2:	0005                	c.nop	1
     1e4:	495a                	lw	s2,148(sp)
     1e6:	0000                	unimp
     1e8:	0005                	c.nop	1
     1ea:	15f6                	slli	a1,a1,0x3d
     1ec:	0000                	unimp
     1ee:	0005                	c.nop	1
     1f0:	2605                	jal	510 <_erodata+0x3d0>
     1f2:	0000                	unimp
     1f4:	0005                	c.nop	1
     1f6:	1616                	slli	a2,a2,0x25
     1f8:	0000                	unimp
     1fa:	0005                	c.nop	1
     1fc:	3e09                	jal	fffffd0e <_fstack+0xefff7d0e>
     1fe:	0000                	unimp
     200:	0005                	c.nop	1
     202:	1046                	c.slli	zero,0x31
     204:	0000                	unimp
     206:	0005                	c.nop	1
     208:	00001f8b          	0x1f8b
     20c:	0005                	c.nop	1
     20e:	35e4                	fld	fs1,232(a1)
     210:	0000                	unimp
     212:	0005                	c.nop	1
     214:	09c1                	addi	s3,s3,16
     216:	0000                	unimp
     218:	0005                	c.nop	1
     21a:	000017af          	0x17af
     21e:	0005                	c.nop	1
     220:	1e10                	addi	a2,sp,816
     222:	0000                	unimp
     224:	0005                	c.nop	1
     226:	000047cf          	fnmadd.s	fa5,ft0,ft0,ft0,rmm
     22a:	0005                	c.nop	1
     22c:	1242                	slli	tp,tp,0x30
     22e:	0000                	unimp
     230:	0005                	c.nop	1
     232:	0120                	addi	s0,sp,136
     234:	0000                	unimp
     236:	0005                	c.nop	1
     238:	2200                	fld	fs0,0(a2)
     23a:	0000                	unimp
     23c:	0005                	c.nop	1
     23e:	00004507          	flq	fa0,0(zero) # 0 <__DYNAMIC>
     242:	0005                	c.nop	1
     244:	1571                	addi	a0,a0,-4
     246:	0000                	unimp
     248:	0005                	c.nop	1
     24a:	4422                	lw	s0,8(sp)
     24c:	0000                	unimp
     24e:	0005                	c.nop	1
     250:	00001877          	0x1877
     254:	0005                	c.nop	1
     256:	00a5                	addi	ra,ra,9
     258:	0000                	unimp
     25a:	0005                	c.nop	1
     25c:	22a6                	fld	ft5,72(sp)
     25e:	0000                	unimp
     260:	0005                	c.nop	1
     262:	1085                	addi	ra,ra,-31
     264:	0000                	unimp
     266:	0005                	c.nop	1
     268:	370c                	fld	fa1,40(a4)
     26a:	0000                	unimp
     26c:	0005                	c.nop	1
     26e:	0a21                	addi	s4,s4,8
     270:	0000                	unimp
     272:	0005                	c.nop	1
     274:	2d04                	fld	fs1,24(a0)
     276:	0000                	unimp
     278:	0005                	c.nop	1
     27a:	1f56                	slli	t5,t5,0x35
     27c:	0000                	unimp
     27e:	0005                	c.nop	1
     280:	3f1a                	fld	ft10,416(sp)
     282:	0000                	unimp
     284:	0005                	c.nop	1
     286:	0e5d                	addi	t3,t3,23
     288:	0000                	unimp
     28a:	0005                	c.nop	1
     28c:	3ad0                	fld	fa2,176(a3)
     28e:	0000                	unimp
     290:	0005                	c.nop	1
     292:	0784                	addi	s1,sp,960
     294:	0000                	unimp
     296:	0005                	c.nop	1
     298:	14f8                	addi	a4,sp,620
     29a:	0000                	unimp
     29c:	0005                	c.nop	1
     29e:	1161                	addi	sp,sp,-8
     2a0:	0000                	unimp
     2a2:	0005                	c.nop	1
     2a4:	00003b23          	0x3b23
     2a8:	0005                	c.nop	1
     2aa:	3d84                	fld	fs1,56(a1)
     2ac:	0000                	unimp
     2ae:	0005                	c.nop	1
     2b0:	3f86                	fld	ft11,96(sp)
     2b2:	0000                	unimp
     2b4:	0005                	c.nop	1
     2b6:	000034bb          	0x34bb
     2ba:	0005                	c.nop	1
     2bc:	00000537          	lui	a0,0x0
     2c0:	0005                	c.nop	1
     2c2:	1edf 0000 0005      	0x500001edf
     2c8:	37f2                	fld	fa5,312(sp)
     2ca:	0000                	unimp
     2cc:	0005                	c.nop	1
     2ce:	000046bb          	0x46bb
     2d2:	0005                	c.nop	1
     2d4:	33e4                	fld	fs1,224(a5)
     2d6:	0000                	unimp
     2d8:	0005                	c.nop	1
     2da:	194c                	addi	a1,sp,180
     2dc:	0000                	unimp
     2de:	0005                	c.nop	1
     2e0:	48b5                	li	a7,13
     2e2:	0000                	unimp
     2e4:	0005                	c.nop	1
     2e6:	00004137          	lui	sp,0x4
     2ea:	0005                	c.nop	1
     2ec:	0e1e                	slli	t3,t3,0x7
     2ee:	0000                	unimp
     2f0:	0005                	c.nop	1
     2f2:	000025bb          	0x25bb
     2f6:	0005                	c.nop	1
     2f8:	00b4                	addi	a3,sp,72
     2fa:	0000                	unimp
     2fc:	0005                	c.nop	1
     2fe:	3438                	fld	fa4,104(s0)
     300:	0000                	unimp
     302:	0005                	c.nop	1
     304:	369a                	fld	fa3,416(sp)
     306:	0000                	unimp
     308:	0005                	c.nop	1
     30a:	15e4                	addi	s1,sp,748
     30c:	0000                	unimp
     30e:	0005                	c.nop	1
     310:	2d1d                	jal	946 <_erodata+0x806>
     312:	0000                	unimp
     314:	0005                	c.nop	1
     316:	3785                	jal	276 <_erodata+0x136>
     318:	0000                	unimp
     31a:	0005                	c.nop	1
     31c:	15ae                	slli	a1,a1,0x2b
     31e:	0000                	unimp
     320:	0005                	c.nop	1
     322:	24d8                	fld	fa4,136(s1)
     324:	0000                	unimp
     326:	0005                	c.nop	1
     328:	000024eb          	0x24eb
     32c:	0005                	c.nop	1
     32e:	3292                	fld	ft5,288(sp)
     330:	0000                	unimp
     332:	0005                	c.nop	1
     334:	2a7e                	fld	fs4,472(sp)
     336:	0000                	unimp
     338:	0005                	c.nop	1
     33a:	00000da7          	0xda7
     33e:	0005                	c.nop	1
     340:	2696                	fld	fa3,320(sp)
     342:	0000                	unimp
     344:	0005                	c.nop	1
     346:	0000249b          	0x249b
     34a:	0005                	c.nop	1
     34c:	000048cb          	fnmsub.s	fa7,ft0,ft0,ft0,rmm
     350:	0005                	c.nop	1
     352:	00002a53          	fadd.s	fs4,ft0,ft0,rdn
     356:	0005                	c.nop	1
     358:	12d1                	addi	t0,t0,-12
     35a:	0000                	unimp
     35c:	0005                	c.nop	1
     35e:	4e16                	lw	t3,68(sp)
     360:	0000                	unimp
     362:	0005                	c.nop	1
     364:	4c79                	li	s8,30
     366:	0000                	unimp
     368:	0005                	c.nop	1
     36a:	44de                	lw	s1,212(sp)
     36c:	0000                	unimp
     36e:	0005                	c.nop	1
     370:	23cd                	jal	952 <_erodata+0x812>
     372:	0000                	unimp
     374:	0005                	c.nop	1
     376:	3cc1                	jal	fffffe46 <_fstack+0xefff7e46>
     378:	0000                	unimp
     37a:	0005                	c.nop	1
     37c:	38fd                	jal	fffffc7a <_fstack+0xefff7c7a>
     37e:	0000                	unimp
     380:	0005                	c.nop	1
     382:	00003bd3          	fadd.s	fs7,ft0,ft0,rup
     386:	0005                	c.nop	1
     388:	00002daf          	amoadd.w	s11,zero,(zero)
     38c:	0005                	c.nop	1
     38e:	1549                	addi	a0,a0,-14
     390:	0000                	unimp
     392:	0005                	c.nop	1
     394:	089e                	slli	a7,a7,0x7
     396:	0000                	unimp
     398:	0005                	c.nop	1
     39a:	3a1e                	fld	fs4,480(sp)
     39c:	0000                	unimp
     39e:	0005                	c.nop	1
     3a0:	3c29                	jal	fffffdba <_fstack+0xefff7dba>
     3a2:	0000                	unimp
     3a4:	0005                	c.nop	1
     3a6:	0000165b          	0x165b
     3aa:	0005                	c.nop	1
     3ac:	3fc5                	jal	39c <_erodata+0x25c>
     3ae:	0000                	unimp
     3b0:	0005                	c.nop	1
     3b2:	095c                	addi	a5,sp,148
     3b4:	0000                	unimp
     3b6:	0005                	c.nop	1
     3b8:	00004ba3          	0x4ba3
     3bc:	0005                	c.nop	1
     3be:	1405                	addi	s0,s0,-31
     3c0:	0000                	unimp
     3c2:	0005                	c.nop	1
     3c4:	0000023b          	0x23b
     3c8:	0005                	c.nop	1
     3ca:	00002aa3          	sw	zero,21(zero) # 15 <__DYNAMIC+0x15>
     3ce:	0005                	c.nop	1
     3d0:	2cb9                	jal	62e <_erodata+0x4ee>
     3d2:	0000                	unimp
     3d4:	0005                	c.nop	1
     3d6:	1390                	addi	a2,sp,480
     3d8:	0000                	unimp
     3da:	0005                	c.nop	1
     3dc:	000050bf 1c470005 	0x1c470005000050bf
     3e4:	0000                	unimp
     3e6:	0005                	c.nop	1
     3e8:	21e0                	fld	fs0,192(a1)
     3ea:	0000                	unimp
     3ec:	0005                	c.nop	1
     3ee:	3c69                	jal	fffffe88 <_fstack+0xefff7e88>
     3f0:	0000                	unimp
     3f2:	0005                	c.nop	1
     3f4:	00003c3f 42440005 	0x4244000500003c3f
     3fc:	0000                	unimp
     3fe:	0005                	c.nop	1
     400:	2860                	fld	fs0,208(s0)
     402:	0000                	unimp
     404:	0005                	c.nop	1
     406:	4cd4                	lw	a3,28(s1)
     408:	0000                	unimp
     40a:	0005                	c.nop	1
     40c:	000025cf          	fnmadd.s	fa1,ft0,ft0,ft0,rdn
     410:	0005                	c.nop	1
     412:	327a                	fld	ft4,440(sp)
     414:	0000                	unimp
     416:	0005                	c.nop	1
     418:	2334                	fld	fa3,64(a4)
     41a:	0000                	unimp
     41c:	0005                	c.nop	1
     41e:	00004797          	auipc	a5,0x4
     422:	0005                	c.nop	1
     424:	4436                	lw	s0,76(sp)
     426:	0000                	unimp
     428:	0005                	c.nop	1
     42a:	1686                	slli	a3,a3,0x21
     42c:	0000                	unimp
     42e:	0005                	c.nop	1
     430:	2120                	fld	fs0,64(a0)
     432:	0000                	unimp
     434:	0005                	c.nop	1
     436:	000013f7          	0x13f7
     43a:	0005                	c.nop	1
     43c:	4bd9                	li	s7,22
     43e:	0000                	unimp
     440:	0005                	c.nop	1
     442:	0158                	addi	a4,sp,132
     444:	0000                	unimp
     446:	0005                	c.nop	1
     448:	433a                	lw	t1,140(sp)
     44a:	0000                	unimp
     44c:	0005                	c.nop	1
     44e:	1fb4                	addi	a3,sp,1016
     450:	0000                	unimp
     452:	0005                	c.nop	1
     454:	0000376f          	jal	a4,3454 <_erodata+0x3314>
     458:	0005                	c.nop	1
     45a:	2222                	fld	ft4,8(sp)
     45c:	0000                	unimp
     45e:	0005                	c.nop	1
     460:	2efa                	fld	ft9,408(sp)
     462:	0000                	unimp
     464:	0005                	c.nop	1
     466:	43bd                	li	t2,15
     468:	0000                	unimp
     46a:	0005                	c.nop	1
     46c:	00004737          	lui	a4,0x4
     470:	0005                	c.nop	1
     472:	3f48                	fld	fa0,184(a4)
     474:	0000                	unimp
     476:	0005                	c.nop	1
     478:	50aa                	lw	ra,168(sp)
     47a:	0000                	unimp
     47c:	0005                	c.nop	1
     47e:	2adc                	fld	fa5,144(a3)
     480:	0000                	unimp
     482:	0005                	c.nop	1
     484:	1ace                	slli	s5,s5,0x33
     486:	0000                	unimp
     488:	0005                	c.nop	1
     48a:	09ad                	addi	s3,s3,11
     48c:	0000                	unimp
     48e:	0005                	c.nop	1
     490:	4fdc                	lw	a5,28(a5)
     492:	0000                	unimp
     494:	0005                	c.nop	1
     496:	051f 0000 0005      	0x50000051f
     49c:	00002273          	csrr	tp,ustatus
     4a0:	0005                	c.nop	1
     4a2:	2c74                	fld	fa3,216(s0)
     4a4:	0000                	unimp
     4a6:	0005                	c.nop	1
     4a8:	49b8                	lw	a4,80(a1)
     4aa:	0000                	unimp
     4ac:	0005                	c.nop	1
     4ae:	000050d7          	0x50d7
     4b2:	0005                	c.nop	1
     4b4:	00001da7          	0x1da7
     4b8:	0005                	c.nop	1
     4ba:	486e                	lw	a6,216(sp)
     4bc:	0000                	unimp
     4be:	0005                	c.nop	1
     4c0:	27fa                	fld	fa5,408(sp)
     4c2:	0000                	unimp
     4c4:	0005                	c.nop	1
     4c6:	4ea9                	li	t4,10
     4c8:	0000                	unimp
     4ca:	0005                	c.nop	1
     4cc:	02b8                	addi	a4,sp,328
     4ce:	0000                	unimp
     4d0:	0005                	c.nop	1
     4d2:	4cf0                	lw	a2,92(s1)
     4d4:	0000                	unimp
     4d6:	0005                	c.nop	1
     4d8:	47b8                	lw	a4,72(a5)
     4da:	0000                	unimp
     4dc:	0005                	c.nop	1
     4de:	00001797          	auipc	a5,0x1
     4e2:	0005                	c.nop	1
     4e4:	046c                	addi	a1,sp,524
     4e6:	0000                	unimp
     4e8:	0005                	c.nop	1
     4ea:	4378                	lw	a4,68(a4)
     4ec:	0000                	unimp
     4ee:	0005                	c.nop	1
     4f0:	37d8                	fld	fa4,168(a5)
     4f2:	0000                	unimp
     4f4:	0005                	c.nop	1
     4f6:	2d42                	fld	fs10,16(sp)
     4f8:	0000                	unimp
     4fa:	0005                	c.nop	1
     4fc:	17ff                	0x17ff
     4fe:	0000                	unimp
     500:	0005                	c.nop	1
     502:	4e36                	lw	t3,76(sp)
     504:	0000                	unimp
     506:	0005                	c.nop	1
     508:	3fdc                	fld	fa5,184(a5)
     50a:	0000                	unimp
     50c:	0005                	c.nop	1
     50e:	4466                	lw	s0,88(sp)
     510:	0000                	unimp
     512:	0005                	c.nop	1
     514:	1e91                	addi	t4,t4,-28
     516:	0000                	unimp
     518:	0005                	c.nop	1
     51a:	3305                	jal	23a <_erodata+0xfa>
     51c:	0000                	unimp
     51e:	0005                	c.nop	1
     520:	0f5c                	addi	a5,sp,916
     522:	0000                	unimp
     524:	0005                	c.nop	1
     526:	1fca                	slli	t6,t6,0x32
     528:	0000                	unimp
     52a:	0005                	c.nop	1
     52c:	1098                	addi	a4,sp,96
     52e:	0000                	unimp
     530:	0005                	c.nop	1
     532:	4fae                	lw	t6,200(sp)
     534:	0000                	unimp
     536:	0005                	c.nop	1
     538:	3262                	fld	ft4,56(sp)
     53a:	0000                	unimp
     53c:	0005                	c.nop	1
     53e:	3a9d                	jal	fffffeb4 <_fstack+0xefff7eb4>
     540:	0000                	unimp
     542:	0005                	c.nop	1
     544:	0352                	slli	t1,t1,0x14
     546:	0000                	unimp
     548:	0005                	c.nop	1
     54a:	000022d7          	0x22d7
     54e:	0005                	c.nop	1
     550:	228d                	jal	6b2 <_erodata+0x572>
     552:	0000                	unimp
     554:	0005                	c.nop	1
     556:	0f96                	slli	t6,t6,0x5
     558:	0000                	unimp
     55a:	0005                	c.nop	1
     55c:	2624                	fld	fs1,72(a2)
     55e:	0000                	unimp
     560:	0005                	c.nop	1
     562:	4d62                	lw	s10,24(sp)
     564:	0000                	unimp
     566:	0005                	c.nop	1
     568:	1e44                	addi	s1,sp,820
     56a:	0000                	unimp
     56c:	0005                	c.nop	1
     56e:	4e6e                	lw	t3,216(sp)
     570:	0000                	unimp
     572:	0005                	c.nop	1
     574:	07a5                	addi	a5,a5,9
     576:	0000                	unimp
     578:	0005                	c.nop	1
     57a:	00000dbf 38a40005 	0x38a4000500000dbf
     582:	0000                	unimp
     584:	0005                	c.nop	1
     586:	33f6                	fld	ft7,376(sp)
     588:	0000                	unimp
     58a:	0005                	c.nop	1
     58c:	1339                	addi	t1,t1,-18
     58e:	0000                	unimp
     590:	0005                	c.nop	1
     592:	00ec                	addi	a1,sp,76
     594:	0000                	unimp
     596:	0005                	c.nop	1
     598:	00001513          	slli	a0,zero,0x0
     59c:	0005                	c.nop	1
     59e:	0dfa                	slli	s11,s11,0x1e
     5a0:	0000                	unimp
     5a2:	0005                	c.nop	1
     5a4:	0000110b          	0x110b
     5a8:	0005                	c.nop	1
     5aa:	4771                	li	a4,28
     5ac:	0000                	unimp
     5ae:	0005                	c.nop	1
     5b0:	00001d8b          	0x1d8b
     5b4:	0005                	c.nop	1
     5b6:	0141                	addi	sp,sp,16
     5b8:	0000                	unimp
     5ba:	0005                	c.nop	1
     5bc:	00001a43          	fmadd.s	fs4,ft0,ft0,ft0,rtz
     5c0:	0005                	c.nop	1
     5c2:	2141                	jal	a42 <_erodata+0x902>
     5c4:	0000                	unimp
     5c6:	0005                	c.nop	1
     5c8:	000028eb          	0x28eb
     5cc:	0005                	c.nop	1
     5ce:	3db0                	fld	fa2,120(a1)
     5d0:	0000                	unimp
     5d2:	0005                	c.nop	1
     5d4:	0862                	slli	a6,a6,0x18
     5d6:	0000                	unimp
     5d8:	0005                	c.nop	1
     5da:	1488                	addi	a0,sp,608
     5dc:	0000                	unimp
     5de:	0005                	c.nop	1
     5e0:	00004dd3          	fadd.s	fs11,ft0,ft0,rmm
     5e4:	0005                	c.nop	1
     5e6:	2302                	fld	ft6,0(sp)
     5e8:	0000                	unimp
     5ea:	0005                	c.nop	1
     5ec:	17e6                	slli	a5,a5,0x39
     5ee:	0000                	unimp
     5f0:	0005                	c.nop	1
     5f2:	00d2                	slli	ra,ra,0x14
     5f4:	0000                	unimp
     5f6:	0005                	c.nop	1
     5f8:	00000407          	0x407
     5fc:	0005                	c.nop	1
     5fe:	1e5c                	addi	a5,sp,820
     600:	0000                	unimp
     602:	0005                	c.nop	1
     604:	14dc                	addi	a5,sp,612
     606:	0000                	unimp
     608:	0005                	c.nop	1
     60a:	3399                	jal	350 <_erodata+0x210>
     60c:	0000                	unimp
     60e:	0005                	c.nop	1
     610:	1642                	slli	a2,a2,0x30
     612:	0000                	unimp
     614:	0005                	c.nop	1
     616:	1c90                	addi	a2,sp,624
     618:	0000                	unimp
     61a:	0005                	c.nop	1
     61c:	00003f97          	auipc	t6,0x3
     620:	0005                	c.nop	1
     622:	05f1                	addi	a1,a1,28
     624:	0000                	unimp
     626:	0005                	c.nop	1
     628:	4c0e                	lw	s8,192(sp)
     62a:	0000                	unimp
     62c:	0005                	c.nop	1
     62e:	00002417          	auipc	s0,0x2
     632:	0005                	c.nop	1
     634:	3cd6                	fld	fs9,368(sp)
     636:	0000                	unimp
     638:	0005                	c.nop	1
     63a:	00004b3b          	0x4b3b
     63e:	0005                	c.nop	1
     640:	4f58                	lw	a4,28(a4)
     642:	0000                	unimp
     644:	0005                	c.nop	1
     646:	22bd                	jal	7b4 <_erodata+0x674>
     648:	0000                	unimp
     64a:	0005                	c.nop	1
     64c:	127a                	slli	tp,tp,0x3e
     64e:	0000                	unimp
     650:	0005                	c.nop	1
     652:	274a                	fld	fa4,144(sp)
     654:	0000                	unimp
     656:	0005                	c.nop	1
     658:	0000270b          	0x270b
     65c:	0005                	c.nop	1
     65e:	000039e3          	0x39e3
     662:	0005                	c.nop	1
     664:	392e                	fld	fs2,232(sp)
     666:	0000                	unimp
     668:	0005                	c.nop	1
     66a:	00000223          	sb	zero,4(zero) # 4 <__DYNAMIC+0x4>
     66e:	0005                	c.nop	1
     670:	4cba                	lw	s9,140(sp)
     672:	0000                	unimp
     674:	0005                	c.nop	1
     676:	04ed                	addi	s1,s1,27
     678:	0000                	unimp
     67a:	0005                	c.nop	1
     67c:	000005b3          	add	a1,zero,zero
     680:	0005                	c.nop	1
     682:	4d05                	li	s10,1
     684:	0000                	unimp
     686:	0005                	c.nop	1
     688:	000029fb          	0x29fb
     68c:	0005                	c.nop	1
     68e:	201a                	fld	ft0,384(sp)
     690:	0000                	unimp
     692:	0005                	c.nop	1
     694:	1696                	slli	a3,a3,0x25
     696:	0000                	unimp
     698:	0005                	c.nop	1
     69a:	237a                	fld	ft6,408(sp)
     69c:	0000                	unimp
     69e:	0005                	c.nop	1
     6a0:	000011af          	0x11af
     6a4:	0005                	c.nop	1
     6a6:	499d                	li	s3,7
     6a8:	0000                	unimp
     6aa:	0005                	c.nop	1
     6ac:	2cd1                	jal	980 <_erodata+0x840>
     6ae:	0000                	unimp
     6b0:	0005                	c.nop	1
     6b2:	1afe                	slli	s5,s5,0x3f
     6b4:	0000                	unimp
     6b6:	0005                	c.nop	1
     6b8:	3b86                	fld	fs7,96(sp)
     6ba:	0000                	unimp
     6bc:	0005                	c.nop	1
     6be:	1c29                	addi	s8,s8,-22
     6c0:	0000                	unimp
     6c2:	0005                	c.nop	1
     6c4:	00000af3          	0xaf3
     6c8:	0005                	c.nop	1
     6ca:	39a0                	fld	fs0,112(a1)
     6cc:	0000                	unimp
     6ce:	0005                	c.nop	1
     6d0:	4ca0                	lw	s0,88(s1)
     6d2:	0000                	unimp
     6d4:	0005                	c.nop	1
     6d6:	29bc                	fld	fa5,80(a1)
     6d8:	0000                	unimp
     6da:	0005                	c.nop	1
     6dc:	219c                	fld	fa5,0(a1)
     6de:	0000                	unimp
     6e0:	0005                	c.nop	1
     6e2:	382a                	fld	fa6,168(sp)
     6e4:	0000                	unimp
     6e6:	0005                	c.nop	1
     6e8:	00000277          	0x277
     6ec:	0005                	c.nop	1
     6ee:	0171                	addi	sp,sp,28
     6f0:	0000                	unimp
     6f2:	0005                	c.nop	1
     6f4:	1b10                	addi	a2,sp,432
     6f6:	0000                	unimp
     6f8:	0005                	c.nop	1
     6fa:	2a39                	jal	818 <_erodata+0x6d8>
     6fc:	0000                	unimp
     6fe:	0005                	c.nop	1
     700:	2ac1                	jal	8d0 <_erodata+0x790>
     702:	0000                	unimp
     704:	0005                	c.nop	1
     706:	2176                	fld	ft2,344(sp)
     708:	0000                	unimp
     70a:	0005                	c.nop	1
     70c:	4072                	0x4072
     70e:	0000                	unimp
     710:	0005                	c.nop	1
     712:	1ef2                	slli	t4,t4,0x3c
     714:	0000                	unimp
     716:	0005                	c.nop	1
     718:	0a60                	addi	s0,sp,284
     71a:	0000                	unimp
     71c:	0005                	c.nop	1
     71e:	4bf0                	lw	a2,84(a5)
     720:	0000                	unimp
     722:	0005                	c.nop	1
     724:	263a                	fld	fa2,392(sp)
     726:	0000                	unimp
     728:	0005                	c.nop	1
     72a:	054e                	slli	a0,a0,0x13
     72c:	0000                	unimp
     72e:	0005                	c.nop	1
     730:	000040a7          	fsq	ft0,1(zero) # 1 <__DYNAMIC+0x1>
     734:	0005                	c.nop	1
     736:	23f6                	fld	ft7,344(sp)
     738:	0000                	unimp
     73a:	0005                	c.nop	1
     73c:	462c                	lw	a1,72(a2)
     73e:	0000                	unimp
     740:	0005                	c.nop	1
     742:	1912                	slli	s2,s2,0x24
     744:	0000                	unimp
     746:	0005                	c.nop	1
     748:	26d4                	fld	fa3,136(a3)
     74a:	0000                	unimp
     74c:	0005                	c.nop	1
     74e:	0000431b          	0x431b
     752:	0005                	c.nop	1
     754:	2955                	jal	c08 <_erodata+0xac8>
     756:	0000                	unimp
     758:	0005                	c.nop	1
     75a:	4051                	c.li	zero,20
     75c:	0000                	unimp
     75e:	0005                	c.nop	1
     760:	2a62                	fld	fs4,24(sp)
     762:	0000                	unimp
     764:	0005                	c.nop	1
     766:	4efc                	lw	a5,92(a3)
     768:	0000                	unimp
     76a:	0005                	c.nop	1
     76c:	3384                	fld	fs1,32(a5)
     76e:	0000                	unimp
     770:	0005                	c.nop	1
     772:	0630                	addi	a2,sp,776
     774:	0000                	unimp
     776:	0005                	c.nop	1
     778:	1a79                	addi	s4,s4,-2
     77a:	0000                	unimp
     77c:	0005                	c.nop	1
     77e:	4864                	lw	s1,84(s0)
     780:	0000                	unimp
     782:	0005                	c.nop	1
     784:	4388                	lw	a0,0(a5)
     786:	0000                	unimp
     788:	0005                	c.nop	1
     78a:	3a65                	jal	142 <_erodata+0x2>
     78c:	0000                	unimp
     78e:	0005                	c.nop	1
     790:	10fa                	slli	ra,ra,0x3e
     792:	0000                	unimp
     794:	0005                	c.nop	1
     796:	000020f7          	0x20f7
     79a:	0005                	c.nop	1
     79c:	4038                	lw	a4,64(s0)
     79e:	0000                	unimp
     7a0:	0005                	c.nop	1
     7a2:	00000507          	0x507
     7a6:	0005                	c.nop	1
     7a8:	4c61                	li	s8,24
     7aa:	0000                	unimp
     7ac:	0005                	c.nop	1
     7ae:	1f09                	addi	t5,t5,-30
     7b0:	0000                	unimp
     7b2:	0400                	addi	s0,sp,512
     7b4:	0000                	unimp
     7b6:	0505                	addi	a0,a0,1
     7b8:	2552                	fld	fa0,272(sp)
     7ba:	0000                	unimp
     7bc:	0605                	addi	a2,a2,1
     7be:	000049cf          	fnmadd.s	fs3,ft0,ft0,ft0,rmm
     7c2:	0705                	addi	a4,a4,1
     7c4:	17c6                	slli	a5,a5,0x31
     7c6:	0000                	unimp
     7c8:	0805                	addi	a6,a6,1
     7ca:	2259                	jal	950 <_erodata+0x810>
     7cc:	0000                	unimp
     7ce:	0905                	addi	s2,s2,1
     7d0:	00004ae3          	bltz	zero,fe4 <_erodata+0xea4>
     7d4:	0a05                	addi	s4,s4,1
     7d6:	47ff                	0x47ff
     7d8:	0000                	unimp
     7da:	0b05                	addi	s6,s6,1
     7dc:	3b35                	jal	518 <_erodata+0x3d8>
     7de:	0000                	unimp
     7e0:	0c05                	addi	s8,s8,1
     7e2:	031f 0000 0d05      	0xd050000031f
     7e8:	00003e8b          	0x3e8b
     7ec:	0e05                	addi	t3,t3,1
     7ee:	0ab1                	addi	s5,s5,12
     7f0:	0000                	unimp
     7f2:	0f05                	addi	t5,t5,1
     7f4:	0105                	addi	sp,sp,1
     7f6:	0000                	unimp
     7f8:	1005                	c.nop	-31
     7fa:	10d9                	addi	ra,ra,-10
     7fc:	0000                	unimp
     7fe:	1105                	addi	sp,sp,-31
     800:	1324                	addi	s1,sp,424
     802:	0000                	unimp
     804:	1205                	addi	tp,tp,-31
     806:	00002943          	fmadd.s	fs2,ft0,ft0,ft0,rdn
     80a:	1305                	addi	t1,t1,-31
     80c:	00002107          	flw	ft2,0(zero) # 0 <__DYNAMIC>
     810:	1405                	addi	s0,s0,-31
     812:	00001217          	auipc	tp,0x1
     816:	1505                	addi	a0,a0,-31
     818:	3bec                	fld	fa1,240(a5)
     81a:	0000                	unimp
     81c:	1605                	addi	a2,a2,-31
     81e:	36b2                	fld	fa3,296(sp)
     820:	0000                	unimp
     822:	1705                	addi	a4,a4,-31
     824:	0940                	addi	s0,sp,148
     826:	0000                	unimp
     828:	1805                	addi	a6,a6,-31
     82a:	0fd2                	slli	t6,t6,0x14
     82c:	0000                	unimp
     82e:	1905                	addi	s2,s2,-31
     830:	4fc4                	lw	s1,28(a5)
     832:	0000                	unimp
     834:	1a05                	addi	s4,s4,-31
     836:	00000993          	li	s3,0
     83a:	0400                	addi	s0,sp,512
     83c:	0000                	unimp
     83e:	0205                	addi	tp,tp,1
     840:	0000478b          	0x478b
     844:	0405                	addi	s0,s0,1
     846:	0d78                	addi	a4,sp,668
     848:	0000                	unimp
     84a:	0505                	addi	a0,a0,1
     84c:	0000218b          	0x218b
     850:	0605                	addi	a2,a2,1
     852:	3b15                	jal	586 <_erodata+0x446>
     854:	0000                	unimp
     856:	0705                	addi	a4,a4,1
     858:	4c52                	lw	s8,20(sp)
     85a:	0000                	unimp
     85c:	0400                	addi	s0,sp,512
     85e:	0000                	unimp
     860:	2105                	jal	c80 <_erodata+0xb40>
     862:	0680                	addi	s0,sp,832
     864:	0000                	unimp
     866:	2805                	jal	896 <_erodata+0x756>
     868:	36d6                	fld	fa3,368(sp)
     86a:	0000                	unimp
     86c:	a806                	fsd	ft1,16(sp)
     86e:	0a01                	addi	s4,s4,0
     870:	0500003f 1de901a9 	0x1de901a90500003f
     878:	0000                	unimp
     87a:	ad06                	fsd	ft1,152(sp)
     87c:	ae01                	j	b8c <_erodata+0xa4c>
     87e:	0008                	0x8
     880:	0500                	addi	s0,sp,640
     882:	01ae                	slli	gp,gp,0xb
     884:	0000464b          	fnmsub.s	fa2,ft0,ft0,ft0,rmm
     888:	af06                	fsd	ft1,408(sp)
     88a:	2801                	jal	89a <_erodata+0x75a>
     88c:	003d                	c.nop	15
     88e:	0500                	addi	s0,sp,640
     890:	01b0                	addi	a2,sp,200
     892:	1984                	addi	s1,sp,240
     894:	0000                	unimp
     896:	c306                	sw	ra,132(sp)
     898:	c901                	beqz	a0,8a8 <_erodata+0x768>
     89a:	0011                	c.nop	4
     89c:	0500                	addi	s0,sp,640
     89e:	01c4                	addi	s1,sp,196
     8a0:	1295                	addi	t0,t0,-27
     8a2:	0000                	unimp
     8a4:	b405                	j	2c4 <_erodata+0x184>
     8a6:	9102                	jalr	sp
     8a8:	0038                	addi	a4,sp,8
     8aa:	0500                	addi	s0,sp,640
     8ac:	02ba                	slli	t0,t0,0xe
     8ae:	1c66                	slli	s8,s8,0x39
     8b0:	0000                	unimp
     8b2:	c205                	beqz	a2,8d2 <_erodata+0x792>
     8b4:	3402                	fld	fs0,32(sp)
     8b6:	001e                	c.slli	zero,0x7
     8b8:	0500                	addi	s0,sp,640
     8ba:	02c8                	addi	a0,sp,324
     8bc:	0586                	slli	a1,a1,0x1
     8be:	0000                	unimp
     8c0:	d905                	beqz	a0,7f0 <_erodata+0x6b0>
     8c2:	fa02                	fsw	ft0,52(sp)
     8c4:	0019                	c.nop	6
     8c6:	0500                	addi	s0,sp,640
     8c8:	02e1                	addi	t0,t0,24
     8ca:	3b4c                	fld	fa1,176(a4)
     8cc:	0000                	unimp
     8ce:	e705                	bnez	a4,8f6 <_erodata+0x7b6>
     8d0:	5b02                	lw	s6,32(sp)
     8d2:	0020                	addi	s0,sp,8
     8d4:	0500                	addi	s0,sp,640
     8d6:	43f402eb          	0x43f402eb
     8da:	0000                	unimp
     8dc:	f105                	bnez	a0,7fc <_erodata+0x6bc>
     8de:	0202                	c.slli64	tp
     8e0:	0035                	c.nop	13
     8e2:	0500                	addi	s0,sp,640
     8e4:	24560383          	lb	t2,581(a2)
     8e8:	0000                	unimp
     8ea:	9305                	srli	a4,a4,0x21
     8ec:	0038ed03          	0x38ed03
     8f0:	0500                	addi	s0,sp,640
     8f2:	03a5                	addi	t2,t2,9
     8f4:	13b8                	addi	a4,sp,488
     8f6:	0000                	unimp
     8f8:	0400                	addi	s0,sp,512
     8fa:	0000                	unimp
     8fc:	5705                	li	a4,-31
     8fe:	0570                	addi	a2,sp,652
     900:	0000                	unimp
     902:	8905                	andi	a0,a0,1
     904:	7002                	flw	ft0,32(sp)
     906:	0005                	c.nop	1
     908:	0500                	addi	s0,sp,640
     90a:	04e6                	slli	s1,s1,0x19
     90c:	0339                	addi	t1,t1,14
     90e:	0000                	unimp
     910:	f905                	bnez	a0,840 <_erodata+0x700>
     912:	2c04                	fld	fs1,24(s0)
     914:	0010                	0x10
     916:	0500                	addi	s0,sp,640
     918:	04fd                	addi	s1,s1,31
     91a:	1360                	addi	s0,sp,428
     91c:	0000                	unimp
     91e:	8405                	srai	s0,s0,0x1
     920:	9505                	srai	a0,a0,0x21
     922:	0025                	c.nop	9
     924:	0500                	addi	s0,sp,640
     926:	058c                	addi	a1,sp,704
     928:	4396                	lw	t2,68(sp)
     92a:	0000                	unimp
     92c:	0400                	addi	s0,sp,512
     92e:	0000                	unimp
     930:	cd05                	beqz	a0,968 <_erodata+0x828>
     932:	e901                	bnez	a0,942 <_erodata+0x802>
     934:	003a                	c.slli	zero,0xe
     936:	0600                	addi	s0,sp,768
     938:	01d0                	addi	a2,sp,196
     93a:	38e2                	fld	fa7,56(sp)
     93c:	0000                	unimp
     93e:	d405                	beqz	s0,866 <_erodata+0x726>
     940:	2c01                	jal	b50 <_erodata+0xa10>
     942:	003e                	c.slli	zero,0xf
     944:	0500                	addi	s0,sp,640
     946:	01ec                	addi	a1,sp,204
     948:	000044f7          	0x44f7
     94c:	f106                	fsw	ft1,160(sp)
     94e:	5801                	li	a6,-32
     950:	0026                	c.slli	zero,0x9
     952:	0600                	addi	s0,sp,768
     954:	01f2                	slli	gp,gp,0x1c
     956:	3465                	jal	3fe <_erodata+0x2be>
     958:	0000                	unimp
     95a:	f306                	fsw	ft1,164(sp)
     95c:	ee01                	bnez	a2,974 <_erodata+0x834>
     95e:	0042                	c.slli	zero,0x10
     960:	0600                	addi	s0,sp,768
     962:	01f4                	addi	a3,sp,204
     964:	0a06                	slli	s4,s4,0x1
     966:	0000                	unimp
     968:	f506                	fsw	ft1,168(sp)
     96a:	ac01                	j	b7a <_erodata+0xa3a>
     96c:	002e                	c.slli	zero,0xb
     96e:	0600                	addi	s0,sp,768
     970:	01f6                	slli	gp,gp,0x1d
     972:	4488                	lw	a0,8(s1)
     974:	0000                	unimp
     976:	9005                	srli	s0,s0,0x21
     978:	b102                	fsd	ft0,160(sp)
     97a:	0500003f 03390299 	0x33902990500003f
     982:	0000                	unimp
     984:	0400                	addi	s0,sp,512
     986:	0000                	unimp
     988:	0605                	addi	a2,a2,1
     98a:	45bd                	li	a1,15
     98c:	0000                	unimp
     98e:	0f05                	addi	t5,t5,1
     990:	0000398b          	0x398b
     994:	1a05                	addi	s4,s4,-31
     996:	12f9                	addi	t0,t0,-2
     998:	0000                	unimp
     99a:	2105                	jal	dba <_erodata+0xc7a>
     99c:	000001b7          	lui	gp,0x0
     9a0:	d305                	beqz	a4,8c0 <_erodata+0x780>
     9a2:	fe01                	bnez	a2,8ba <_erodata+0x77a>
     9a4:	0039                	c.nop	14
     9a6:	0500                	addi	s0,sp,640
     9a8:	01dc                	addi	a5,sp,196
     9aa:	000026bf fb01e505 	0xfb01e505000026bf
     9b2:	001d                	c.nop	7
     9b4:	0500                	addi	s0,sp,640
     9b6:	01ee                	slli	gp,gp,0x1b
     9b8:	1ab9                	addi	s5,s5,-18
     9ba:	0000                	unimp
     9bc:	fc05                	bnez	s0,8f4 <_erodata+0x7b4>
     9be:	8101                	c.srli64	a0
     9c0:	0024                	addi	s1,sp,8
     9c2:	0500                	addi	s0,sp,640
     9c4:	0296                	slli	t0,t0,0x5
     9c6:	257a                	fld	fa0,408(sp)
     9c8:	0000                	unimp
     9ca:	ac05                	j	bfa <_erodata+0xaba>
     9cc:	a402                	fsd	ft0,8(sp)
     9ce:	0026                	c.slli	zero,0x9
     9d0:	0500                	addi	s0,sp,640
     9d2:	02be                	slli	t0,t0,0xf
     9d4:	2319                	jal	eda <_erodata+0xd9a>
     9d6:	0000                	unimp
     9d8:	e406                	fsw	ft1,8(sp)
     9da:	0e02                	c.slli64	t3
     9dc:	0046                	c.slli	zero,0x11
     9de:	0000                	unimp
     9e0:	0004                	0x4
     9e2:	0500                	addi	s0,sp,640
     9e4:	db30                	sw	a2,112(a4)
     9e6:	0016                	c.slli	zero,0x5
     9e8:	0500                	addi	s0,sp,640
     9ea:	0b31                	addi	s6,s6,12
     9ec:	002e                	c.slli	zero,0xb
     9ee:	0500                	addi	s0,sp,640
     9f0:	2735                	jal	111c <_erodata+0xfdc>
     9f2:	0029                	c.nop	10
     9f4:	0500                	addi	s0,sp,640
     9f6:	b539                	j	804 <_erodata+0x6c4>
     9f8:	0042                	c.slli	zero,0x10
     9fa:	0500                	addi	s0,sp,640
     9fc:	733a                	flw	ft6,172(sp)
     9fe:	003a                	c.slli	zero,0xe
     a00:	0500                	addi	s0,sp,640
     a02:	000e363f 5a400500 	0x5a400500000e363f
     a0a:	0021                	c.nop	8
     a0c:	0500                	addi	s0,sp,640
     a0e:	003e8043          	fmadd.s	ft0,ft9,ft3,ft0,rne
     a12:	0500                	addi	s0,sp,640
     a14:	ac44                	fsd	fs1,152(s0)
     a16:	002c                	addi	a1,sp,8
     a18:	0500                	addi	s0,sp,640
     a1a:	7845                	lui	a6,0xffff1
     a1c:	05000007          	0x5000007
     a20:	0029304f          	fnmadd.s	ft0,fs2,ft2,ft0,rup
     a24:	0500                	addi	s0,sp,640
     a26:	8e5d                	or	a2,a2,a5
     a28:	0011                	c.nop	4
     a2a:	0500                	addi	s0,sp,640
     a2c:	00181663          	bne	a6,ra,a38 <_erodata+0x8f8>
     a30:	0500                	addi	s0,sp,640
     a32:	2c69                	jal	ccc <_erodata+0xb8c>
     a34:	001d                	c.nop	7
     a36:	0500                	addi	s0,sp,640
     a38:	0007f16f          	jal	sp,7fa38 <_erodata+0x7f8f8>
     a3c:	0500                	addi	s0,sp,640
     a3e:	0f75                	addi	t5,t5,29
     a40:	001a                	c.slli	zero,0x6
     a42:	0500                	addi	s0,sp,640
     a44:	9f76                	add	t5,t5,t4
     a46:	05000037          	lui	zero,0x5000
     a4a:	a47d                	j	cf8 <_erodata+0xbb8>
     a4c:	0500002f          	0x500002f
     a50:	0185                	addi	gp,gp,1
     a52:	1d62                	slli	s10,s10,0x38
     a54:	0000                	unimp
     a56:	8b05                	andi	a4,a4,1
     a58:	e701                	bnez	a4,a60 <_erodata+0x920>
     a5a:	003e                	c.slli	zero,0xf
     a5c:	0500                	addi	s0,sp,640
     a5e:	0191                	addi	gp,gp,4
     a60:	00002c4f          	fnmadd.s	fs8,ft0,ft0,ft0,rdn
     a64:	9705                	srai	a4,a4,0x21
     a66:	1f01                	addi	t5,t5,-32
     a68:	0004                	0x4
     a6a:	0500                	addi	s0,sp,640
     a6c:	019d                	addi	gp,gp,7
     a6e:	1852                	slli	a6,a6,0x34
     a70:	0000                	unimp
     a72:	a305                	j	f92 <_erodata+0xe52>
     a74:	1d01                	addi	s10,s10,-32
     a76:	05000027          	0x5000027
     a7a:	01a9                	addi	gp,gp,10
     a7c:	3344                	fld	fs1,160(a4)
     a7e:	0000                	unimp
     a80:	af05                	j	11b0 <_erodata+0x1070>
     a82:	5e01                	li	t3,-32
     a84:	0042                	c.slli	zero,0x10
     a86:	0500                	addi	s0,sp,640
     a88:	01b5                	addi	gp,gp,13
     a8a:	2ba8                	fld	fa0,80(a5)
     a8c:	0000                	unimp
     a8e:	bb05                	j	7be <_erodata+0x67e>
     a90:	4401                	li	s0,0
     a92:	0006                	c.slli	zero,0x1
     a94:	0500                	addi	s0,sp,640
     a96:	01c1                	addi	gp,gp,16
     a98:	1bec                	addi	a1,sp,508
     a9a:	0000                	unimp
     a9c:	c705                	beqz	a4,ac4 <_erodata+0x984>
     a9e:	d101                	beqz	a0,99e <_erodata+0x85e>
     aa0:	0500002b          	0x500002b
     aa4:	01cd                	addi	gp,gp,19
     aa6:	20d0                	fld	fa2,128(s1)
     aa8:	0000                	unimp
     aaa:	d305                	beqz	a4,9ca <_erodata+0x88a>
     aac:	d801                	beqz	s0,9bc <_erodata+0x87c>
     aae:	0011                	c.nop	4
     ab0:	0500                	addi	s0,sp,640
     ab2:	01d9                	addi	gp,gp,22
     ab4:	2501                	jal	10b4 <_erodata+0xf74>
     ab6:	0000                	unimp
     ab8:	df05                	beqz	a4,9f0 <_erodata+0x8b0>
     aba:	7a01                	lui	s4,0xfffe0
     abc:	0045                	c.nop	17
     abe:	0500                	addi	s0,sp,640
     ac0:	3a4001e7          	jalr	gp,932(zero) # 0 <__DYNAMIC>
     ac4:	0000                	unimp
     ac6:	ea05                	bnez	a2,af6 <_erodata+0x9b6>
     ac8:	ab01                	j	fd8 <_erodata+0xe98>
     aca:	001c                	0x1c
     acc:	0500                	addi	s0,sp,640
     ace:	01ee                	slli	gp,gp,0x1b
     ad0:	3720                	fld	fs0,104(a4)
     ad2:	0000                	unimp
     ad4:	f205                	bnez	a2,9f4 <_erodata+0x8b4>
     ad6:	f301                	bnez	a4,9d6 <_erodata+0x896>
     ad8:	0008                	0x8
     ada:	0500                	addi	s0,sp,640
     adc:	01fd                	addi	gp,gp,31
     ade:	00004c6b          	0x4c6b
     ae2:	8405                	srai	s0,s0,0x1
     ae4:	a302                	fsd	ft0,384(sp)
     ae6:	0044                	addi	s1,sp,4
     ae8:	0500                	addi	s0,sp,640
     aea:	028a                	slli	t0,t0,0x2
     aec:	049a                	slli	s1,s1,0x6
     aee:	0000                	unimp
     af0:	9005                	srli	s0,s0,0x21
     af2:	c702                	sw	zero,140(sp)
     af4:	0001                	nop
     af6:	0500                	addi	s0,sp,640
     af8:	0294                	addi	a3,sp,320
     afa:	18a6                	slli	a7,a7,0x29
     afc:	0000                	unimp
     afe:	9605                	srai	a2,a2,0x21
     b00:	5d02                	lw	s10,32(sp)
     b02:	0041                	c.nop	16
     b04:	0500                	addi	s0,sp,640
     b06:	0299                	addi	t0,t0,6
     b08:	0368                	addi	a0,sp,396
     b0a:	0000                	unimp
     b0c:	a605                	j	e2c <_erodata+0xcec>
     b0e:	9702                	jalr	a4
     b10:	0042                	c.slli	zero,0x10
     b12:	0500                	addi	s0,sp,640
     b14:	02a9                	addi	t0,t0,10
     b16:	09ee                	slli	s3,s3,0x1b
     b18:	0000                	unimp
     b1a:	ac05                	j	d4a <_erodata+0xc0a>
     b1c:	4802                	lw	a6,0(sp)
     b1e:	0032                	c.slli	zero,0xc
     b20:	0500                	addi	s0,sp,640
     b22:	401d02af          	0x401d02af
     b26:	0000                	unimp
     b28:	b205                	j	448 <_erodata+0x308>
     b2a:	7402                	flw	fs0,32(sp)
     b2c:	000a                	c.slli	zero,0x2
     b2e:	0500                	addi	s0,sp,640
     b30:	02b5                	addi	t0,t0,13
     b32:	1016                	c.slli	zero,0x25
     b34:	0000                	unimp
     b36:	b805                	j	366 <_erodata+0x226>
     b38:	8302                	jr	t1
     b3a:	0036                	c.slli	zero,0xd
     b3c:	0500                	addi	s0,sp,640
     b3e:	268102bb          	0x268102bb
     b42:	0000                	unimp
     b44:	be05                	j	674 <_erodata+0x534>
     b46:	8102                	jr	sp
     b48:	0042                	c.slli	zero,0x10
     b4a:	0500                	addi	s0,sp,640
     b4c:	02c1                	addi	t0,t0,16
     b4e:	1b61                	addi	s6,s6,-8
     b50:	0000                	unimp
     b52:	c405                	beqz	s0,b7a <_erodata+0xa3a>
     b54:	6102                	flw	ft2,0(sp)
     b56:	0045                	c.nop	17
     b58:	0500                	addi	s0,sp,640
     b5a:	444c02c7          	0x444c02c7
     b5e:	0000                	unimp
     b60:	ca05                	beqz	a2,b90 <_erodata+0xa50>
     b62:	8e02                	jr	t3
     b64:	05000027          	0x5000027
     b68:	02cd                	addi	t0,t0,19
     b6a:	00002ecb          	fnmsub.s	ft9,ft0,ft0,ft0,rdn
     b6e:	d005                	beqz	s0,a8e <_erodata+0x94e>
     b70:	3102                	fld	ft2,32(sp)
     b72:	0032                	c.slli	zero,0xc
     b74:	0500                	addi	s0,sp,640
     b76:	3d4f02d3          	0x3d4f02d3
     b7a:	0000                	unimp
     b7c:	d905                	beqz	a0,aac <_erodata+0x96c>
     b7e:	1902                	slli	s2,s2,0x20
     b80:	0041                	c.nop	16
     b82:	0500                	addi	s0,sp,640
     b84:	02e6                	slli	t0,t0,0x19
     b86:	2e4d                	jal	f38 <_erodata+0xdf8>
     b88:	0000                	unimp
     b8a:	ea05                	bnez	a2,bba <_erodata+0xa7a>
     b8c:	7302                	flw	ft6,32(sp)
     b8e:	0020                	addi	s0,sp,8
     b90:	0500                	addi	s0,sp,640
     b92:	02ee                	slli	t0,t0,0x1b
     b94:	2f60                	fld	fs0,216(a4)
     b96:	0000                	unimp
     b98:	f205                	bnez	a2,ab8 <_erodata+0x978>
     b9a:	9502                	jalr	a0
     b9c:	0035                	c.nop	13
     b9e:	0500                	addi	s0,sp,640
     ba0:	4da602f3          	0x4da602f3
     ba4:	0000                	unimp
     ba6:	f405                	bnez	s0,ace <_erodata+0x98e>
     ba8:	de02                	sw	zero,60(sp)
     baa:	002d                	c.nop	11
     bac:	0500                	addi	s0,sp,640
     bae:	038a                	slli	t2,t2,0x2
     bb0:	4eee                	lw	t4,216(sp)
     bb2:	0000                	unimp
     bb4:	8b05                	andi	a4,a4,1
     bb6:	00287403          	0x287403
     bba:	0500                	addi	s0,sp,640
     bbc:	4f70038f          	0x4f70038f
     bc0:	0000                	unimp
     bc2:	a305                	j	10e2 <_erodata+0xfa2>
     bc4:	00126403          	0x126403
     bc8:	0500                	addi	s0,sp,640
     bca:	03a4                	addi	s1,sp,456
     bcc:	4544                	lw	s1,12(a0)
     bce:	0000                	unimp
     bd0:	a505                	j	11f0 <_erodata+0x10b0>
     bd2:	00494b03          	lbu	s6,4(s2) # 36373004 <_fstack+0x2636b004>
     bd6:	0500                	addi	s0,sp,640
     bd8:	03aa                	slli	t2,t2,0xa
     bda:	3ba2                	fld	fs7,40(sp)
     bdc:	0000                	unimp
     bde:	bc05                	j	60e <_erodata+0x4ce>
     be0:	00410003          	lb	zero,4(sp) # 4004 <_erodata+0x3ec4>
     be4:	0500                	addi	s0,sp,640
     be6:	26f203c3          	fmadd.q	ft7,ft4,fa5,ft4,rne
     bea:	0000                	unimp
     bec:	f205                	bnez	a2,b0c <_erodata+0x9cc>
     bee:	002b1803          	lh	a6,2(s6) # 18002 <_erodata+0x17ec2>
     bf2:	0500                	addi	s0,sp,640
     bf4:	0481                	addi	s1,s1,0
     bf6:	0fb9                	addi	t6,t6,14
     bf8:	0000                	unimp
     bfa:	9205                	srli	a2,a2,0x21
     bfc:	0604                	addi	s1,sp,768
     bfe:	0020                	addi	s0,sp,8
     c00:	0500                	addi	s0,sp,640
     c02:	049c                	addi	a5,sp,576
     c04:	2991                	jal	1058 <_erodata+0xf18>
     c06:	0000                	unimp
     c08:	a105                	j	1028 <_erodata+0xee8>
     c0a:	ae04                	fsd	fs1,24(a2)
     c0c:	0032                	c.slli	zero,0xc
     c0e:	0500                	addi	s0,sp,640
     c10:	04a2                	slli	s1,s1,0x8
     c12:	0000465b          	0x465b
     c16:	ac05                	j	e46 <_erodata+0xd06>
     c18:	ec04                	fsw	fs1,24(s0)
     c1a:	0016                	c.slli	zero,0x5
     c1c:	0500                	addi	s0,sp,640
     c1e:	04ee                	slli	s1,s1,0x1b
     c20:	00001b97          	auipc	s7,0x1
     c24:	8805                	andi	s0,s0,1
     c26:	5a05                	li	s4,-31
     c28:	0035                	c.nop	13
     c2a:	0000                	unimp
     c2c:	0004                	0x4
     c2e:	0500                	addi	s0,sp,640
     c30:	500a                	0x500a
     c32:	05000013          	li	zero,80
     c36:	00430913          	addi	s2,t1,4 # ffff8004 <_fstack+0xefff0004>
     c3a:	0500                	addi	s0,sp,640
     c3c:	00122f17          	auipc	t5,0x122
     c40:	0500                	addi	s0,sp,640
     c42:	ff19                	bnez	a4,b60 <_erodata+0xa20>
     c44:	0039                	c.nop	14
     c46:	0500                	addi	s0,sp,640
     c48:	181f 001f 0500      	0x500001f181f
     c4e:	000ff023          	0xff023
     c52:	0500                	addi	s0,sp,640
     c54:	c025                	beqz	s0,cb4 <_erodata+0xb74>
     c56:	0026                	c.slli	zero,0x9
     c58:	0500                	addi	s0,sp,640
     c5a:	0033712b          	0x33712b
     c5e:	0500                	addi	s0,sp,640
     c60:	00117a2f          	0x117a2f
     c64:	0500                	addi	s0,sp,640
     c66:	fc31                	bnez	s0,bc2 <_erodata+0xa82>
     c68:	001d                	c.nop	7
     c6a:	0500                	addi	s0,sp,640
     c6c:	004c8d37          	lui	s10,0x4c8
     c70:	0500                	addi	s0,sp,640
     c72:	0019703b          	0x19703b
     c76:	0500                	addi	s0,sp,640
     c78:	ba3d                	j	5b6 <_erodata+0x476>
     c7a:	001a                	c.slli	zero,0x6
     c7c:	0500                	addi	s0,sp,640
     c7e:	ba42                	fsd	fa6,304(sp)
     c80:	0028                	addi	a0,sp,8
     c82:	0500                	addi	s0,sp,640
     c84:	0014c747          	fmsub.s	fa4,fs1,ft1,ft0,rmm
     c88:	0500                	addi	s0,sp,640
     c8a:	614c                	flw	fa1,4(a0)
     c8c:	05000027          	0x5000027
     c90:	8951                	andi	a0,a0,20
     c92:	003c                	addi	a5,sp,8
     c94:	0000                	unimp
     c96:	0004                	0x4
     c98:	0500                	addi	s0,sp,640
     c9a:	cb0a                	sw	sp,148(sp)
     c9c:	000a                	c.slli	zero,0x2
     c9e:	0500                	addi	s0,sp,640
     ca0:	1610                	addi	a2,sp,800
     ca2:	002c                	addi	a1,sp,8
     ca4:	0600                	addi	s0,sp,768
     ca6:	ec2d                	bnez	s0,d20 <_erodata+0xbe0>
     ca8:	000a                	c.slli	zero,0x2
     caa:	0600                	addi	s0,sp,768
     cac:	ea2e                	fsw	fa1,20(sp)
     cae:	000a                	c.slli	zero,0x2
     cb0:	0600                	addi	s0,sp,768
     cb2:	003acb2f          	0x3acb2f
     cb6:	0600                	addi	s0,sp,768
     cb8:	0130                	addi	a2,sp,136
     cba:	02000003          	lb	zero,32(zero) # 20 <trap_entry>
     cbe:	6931                	lui	s2,0xc
     cc0:	746e                	flw	fs0,248(sp)
     cc2:	0600                	addi	s0,sp,768
     cc4:	b132                	fsd	fa2,160(sp)
     cc6:	0600000f          	fence	or,unknown
     cca:	0004c933          	xor	s2,s1,zero
     cce:	0600                	addi	s0,sp,768
     cd0:	f634                	fsw	fa3,104(a2)
     cd2:	003a                	c.slli	zero,0xe
     cd4:	0500                	addi	s0,sp,640
     cd6:	d235                	beqz	a2,c3a <_erodata+0xafa>
     cd8:	0046                	c.slli	zero,0x11
     cda:	0500                	addi	s0,sp,640
     cdc:	d036                	sw	a3,32(sp)
     cde:	0046                	c.slli	zero,0x11
     ce0:	0500                	addi	s0,sp,640
     ce2:	000fe837          	lui	a6,0xfe
     ce6:	0500                	addi	s0,sp,640
     ce8:	a438                	fsd	fa4,72(s0)
     cea:	0009                	c.nop	2
     cec:	0500                	addi	s0,sp,640
     cee:	4439                	li	s0,14
     cf0:	002c                	addi	a1,sp,8
     cf2:	0500                	addi	s0,sp,640
     cf4:	d83a                	sw	a4,48(sp)
     cf6:	0045                	c.nop	17
     cf8:	0500                	addi	s0,sp,640
     cfa:	00131d3b          	0x131d3b
     cfe:	0500                	addi	s0,sp,640
     d00:	883c                	0x883c
     d02:	05000013          	li	zero,80
     d06:	bd45                	j	bb6 <_erodata+0xa76>
     d08:	05000023          	sb	a6,64(zero) # 40 <trap_entry+0x20>
     d0c:	0d4c                	addi	a1,sp,660
     d0e:	05000013          	li	zero,80
     d12:	2854                	fld	fa3,144(s0)
     d14:	001e                	c.slli	zero,0x7
     d16:	0500                	addi	s0,sp,640
     d18:	a05f 002e 0500      	0x500002ea05f
     d1e:	126a                	slli	tp,tp,0x3a
     d20:	003a                	c.slli	zero,0xe
     d22:	0500                	addi	s0,sp,640
     d24:	00213473          	csrrc	s0,frm,sp
     d28:	0500                	addi	s0,sp,640
     d2a:	037a                	slli	t1,t1,0x1e
     d2c:	05000037          	lui	zero,0x5000
     d30:	111c0183          	lb	gp,273(s8)
     d34:	0000                	unimp
     d36:	8a05                	andi	a2,a2,1
     d38:	7e01                	lui	t3,0xfffe0
     d3a:	0044                	addi	s1,sp,4
     d3c:	0500                	addi	s0,sp,640
     d3e:	0195                	addi	gp,gp,5
     d40:	1f7d                	addi	t5,t5,-1
     d42:	0000                	unimp
     d44:	9905                	andi	a0,a0,-31
     d46:	1001                	c.nop	-32
     d48:	000e                	c.slli	zero,0x3
     d4a:	0500                	addi	s0,sp,640
     d4c:	01a4                	addi	s1,sp,200
     d4e:	1634                	addi	a3,sp,808
     d50:	0000                	unimp
     d52:	af05                	j	1482 <_erodata+0x1342>
     d54:	7301                	lui	t1,0xfffe0
     d56:	0026                	c.slli	zero,0x9
     d58:	0500                	addi	s0,sp,640
     d5a:	01b8                	addi	a4,sp,200
     d5c:	12ea                	slli	t0,t0,0x3a
     d5e:	0000                	unimp
     d60:	ba06                	fsd	ft1,304(sp)
     d62:	ec01                	bnez	s0,d7a <_erodata+0xc3a>
     d64:	000a                	c.slli	zero,0x2
     d66:	0600                	addi	s0,sp,768
     d68:	0aea01bb          	0xaea01bb
     d6c:	0000                	unimp
     d6e:	bc06                	fsd	ft1,56(sp)
     d70:	cb01                	beqz	a4,d80 <_erodata+0xc40>
     d72:	003a                	c.slli	zero,0xe
     d74:	0600                	addi	s0,sp,768
     d76:	01bd                	addi	gp,gp,15
     d78:	0301                	addi	t1,t1,0
     d7a:	0000                	unimp
     d7c:	be02                	fsd	ft0,312(sp)
     d7e:	6901                	0x6901
     d80:	746e                	flw	fs0,248(sp)
     d82:	0600                	addi	s0,sp,768
     d84:	3af601bf c5060000 	0xc50600003af601bf
     d8c:	b101                	j	98c <_erodata+0x84c>
     d8e:	0600000f          	fence	or,unknown
     d92:	01c6                	slli	gp,gp,0x11
     d94:	04c9                	addi	s1,s1,18
     d96:	0000                	unimp
     d98:	0400                	addi	s0,sp,512
     d9a:	0000                	unimp
     d9c:	1605                	addi	a2,a2,-31
     d9e:	2482                	fld	fs1,0(sp)
     da0:	0000                	unimp
     da2:	1c05                	addi	s8,s8,-31
     da4:	0000257b          	0x257b
     da8:	2205                	jal	ec8 <_erodata+0xd88>
     daa:	26a5                	jal	1112 <_erodata+0xfd2>
     dac:	0000                	unimp
     dae:	2805                	jal	dde <_erodata+0xc9e>
     db0:	231a                	fld	ft6,384(sp)
     db2:	0000                	unimp
     db4:	3405                	jal	7d4 <_erodata+0x694>
     db6:	00003bbb          	0x3bbb
     dba:	3e05                	jal	8ea <_erodata+0x7aa>
     dbc:	357c                	fld	fa5,232(a0)
     dbe:	0000                	unimp
     dc0:	4805                	li	a6,1
     dc2:	2bf2                	fld	fs7,280(sp)
     dc4:	0000                	unimp
     dc6:	5205                	li	tp,-31
     dc8:	2775                	jal	1574 <_erodata+0x1434>
     dca:	0000                	unimp
     dcc:	7f05                	lui	t5,0xfffe1
     dce:	48fc                	lw	a5,84(s1)
     dd0:	0000                	unimp
     dd2:	8005                	srli	s0,s0,0x1
     dd4:	6901                	0x6901
     dd6:	0010                	0x10
     dd8:	0500                	addi	s0,sp,640
     dda:	0181                	addi	gp,gp,0
     ddc:	00003c0b          	0x3c0b
     de0:	9705                	srai	a4,a4,0x21
     de2:	f401                	bnez	s0,cea <_erodata+0xbaa>
     de4:	0049                	c.nop	18
     de6:	0500                	addi	s0,sp,640
     de8:	0198                	addi	a4,sp,192
     dea:	000047e7          	0x47e7
     dee:	9905                	andi	a0,a0,-31
     df0:	4801                	li	a6,0
     df2:	004d                	c.nop	19
     df4:	0500                	addi	s0,sp,640
     df6:	01a1                	addi	gp,gp,8
     df8:	1a90                	addi	a2,sp,368
     dfa:	0000                	unimp
     dfc:	a205                	j	f1c <_erodata+0xddc>
     dfe:	3c01                	jal	80e <_erodata+0x6ce>
     e00:	0028                	addi	a0,sp,8
     e02:	0500                	addi	s0,sp,640
     e04:	25df01a3          	sb	t4,579(t5) # fffe1243 <_fstack+0xeffd9243>
     e08:	0000                	unimp
     e0a:	ad05                	j	143a <_erodata+0x12fa>
     e0c:	8f01                	sub	a4,a4,s0
     e0e:	0500004f          	0x500004f
     e12:	01ae                	slli	gp,gp,0xb
     e14:	1c76                	slli	s8,s8,0x3d
     e16:	0000                	unimp
     e18:	af05                	j	1548 <_erodata+0x1408>
     e1a:	ba01                	j	72a <_erodata+0x5ea>
     e1c:	0019                	c.nop	6
     e1e:	0500                	addi	s0,sp,640
     e20:	1f2b01b7          	lui	gp,0x1f2b0
     e24:	0000                	unimp
     e26:	b805                	j	656 <_erodata+0x516>
     e28:	d201                	beqz	a2,d28 <_erodata+0xbe8>
     e2a:	0041                	c.nop	16
     e2c:	0500                	addi	s0,sp,640
     e2e:	01b9                	addi	gp,gp,14
     e30:	000039bb          	0x39bb
     e34:	c305                	beqz	a4,e54 <_erodata+0xd14>
     e36:	8901                	andi	a0,a0,0
     e38:	0500002b          	0x500002b
     e3c:	01c4                	addi	s1,sp,196
     e3e:	00003afb          	0x3afb
     e42:	c505                	beqz	a0,e6a <_erodata+0xd2a>
     e44:	2d01                	jal	1454 <_erodata+0x1314>
     e46:	0015                	c.nop	5
     e48:	0500                	addi	s0,sp,640
     e4a:	239201d3          	fsgnj.d	ft3,ft4,fs9
     e4e:	0000                	unimp
     e50:	d405                	beqz	s0,d78 <_erodata+0xc38>
     e52:	c601                	beqz	a2,e5a <_erodata+0xd1a>
     e54:	0500001b          	0x500001b
     e58:	01d5                	addi	gp,gp,21
     e5a:	4f30                	lw	a2,88(a4)
     e5c:	0000                	unimp
     e5e:	e505                	bnez	a0,e86 <_erodata+0xd46>
     e60:	2c01                	jal	1070 <_erodata+0xf30>
     e62:	0049                	c.nop	18
     e64:	0500                	addi	s0,sp,640
     e66:	01e6                	slli	gp,gp,0x19
     e68:	3d96                	fld	fs11,352(sp)
     e6a:	0000                	unimp
     e6c:	e705                	bnez	a4,e94 <_erodata+0xd54>
     e6e:	3601                	jal	96e <_erodata+0x82e>
     e70:	0025                	c.nop	9
     e72:	0500                	addi	s0,sp,640
     e74:	01f5                	addi	gp,gp,29
     e76:	03dc                	addi	a5,sp,452
     e78:	0000                	unimp
     e7a:	f605                	bnez	a2,da2 <_erodata+0xc62>
     e7c:	b201                	j	77c <_erodata+0x63c>
     e7e:	0024                	addi	s1,sp,8
     e80:	0500                	addi	s0,sp,640
     e82:	113901f7          	0x113901f7
     e86:	0000                	unimp
     e88:	8505                	srai	a0,a0,0x1
     e8a:	1402                	slli	s0,s0,0x20
     e8c:	0500004b          	0x500004b
     e90:	0286                	slli	t0,t0,0x1
     e92:	4b81                	li	s7,0
     e94:	0000                	unimp
     e96:	8705                	srai	a4,a4,0x1
     e98:	2002                	fld	ft0,0(sp)
     e9a:	0042                	c.slli	zero,0x10
     e9c:	0500                	addi	s0,sp,640
     e9e:	0295                	addi	t0,t0,5
     ea0:	45e5                	li	a1,25
     ea2:	0000                	unimp
     ea4:	9605                	srai	a2,a2,0x21
     ea6:	d602                	sw	zero,44(sp)
     ea8:	0019                	c.nop	6
     eaa:	0500                	addi	s0,sp,640
     eac:	39650297          	auipc	t0,0x39650
     eb0:	0000                	unimp
     eb2:	a505                	j	14d2 <_erodata+0x1392>
     eb4:	2302                	fld	ft6,0(sp)
     eb6:	0014                	0x14
     eb8:	0500                	addi	s0,sp,640
     eba:	02a6                	slli	t0,t0,0x9
     ebc:	1b28                	addi	a0,sp,440
     ebe:	0000                	unimp
     ec0:	a705                	j	15e0 <_erodata+0x14a0>
     ec2:	0402                	c.slli64	s0
     ec4:	0038                	addi	a4,sp,8
     ec6:	0500                	addi	s0,sp,640
     ec8:	02b5                	addi	t0,t0,13
     eca:	3ff4                	fld	fa3,248(a5)
     ecc:	0000                	unimp
     ece:	b605                	j	9ee <_erodata+0x8ae>
     ed0:	6202                	flw	ft4,0(sp)
     ed2:	0500003b          	0x500003b
     ed6:	35be02b7          	lui	t0,0x35be0
     eda:	0000                	unimp
     edc:	c505                	beqz	a0,f04 <_erodata+0xdc4>
     ede:	8102                	jr	sp
     ee0:	0049                	c.nop	18
     ee2:	0500                	addi	s0,sp,640
     ee4:	02c6                	slli	t0,t0,0x11
     ee6:	025a                	slli	tp,tp,0x16
     ee8:	0000                	unimp
     eea:	ce05                	beqz	a2,f22 <_erodata+0xde2>
     eec:	9c02                	jalr	s8
     eee:	0019                	c.nop	6
     ef0:	0500                	addi	s0,sp,640
     ef2:	02d6                	slli	t0,t0,0x15
     ef4:	3df1                	jal	dd0 <_erodata+0xc90>
     ef6:	0000                	unimp
     ef8:	dc05                	beqz	s0,e30 <_erodata+0xcf0>
     efa:	7a02                	flw	fs4,32(sp)
     efc:	004d                	c.nop	19
     efe:	0500                	addi	s0,sp,640
     f00:	02dd                	addi	t0,t0,23
     f02:	0828                	addi	a0,sp,24
     f04:	0000                	unimp
     f06:	e105                	bnez	a0,f26 <_erodata+0xde6>
     f08:	8902                	jr	s2
     f0a:	0040                	addi	s0,sp,4
     f0c:	0500                	addi	s0,sp,640
     f0e:	02e5                	addi	t0,t0,25
     f10:	4bba                	lw	s7,140(sp)
     f12:	0000                	unimp
     f14:	ea05                	bnez	a2,f44 <_erodata+0xe04>
     f16:	4b02                	lw	s6,0(sp)
     f18:	0039                	c.nop	14
     f1a:	0500                	addi	s0,sp,640
     f1c:	02f5                	addi	t0,t0,29
     f1e:	00002467          	0x2467
     f22:	ff05                	bnez	a4,e5a <_erodata+0xd1a>
     f24:	1802                	slli	a6,a6,0x20
     f26:	002e                	c.slli	zero,0xb
     f28:	0500                	addi	s0,sp,640
     f2a:	0384                	addi	s1,sp,448
     f2c:	00000307          	0x307
     f30:	8b05                	andi	a4,a4,1
     f32:	00420a03          	lb	s4,4(tp) # 1816 <_erodata+0x16d6>
     f36:	0500                	addi	s0,sp,640
     f38:	038c                	addi	a1,sp,448
     f3a:	2979                	jal	13d8 <_erodata+0x1298>
     f3c:	0000                	unimp
     f3e:	9705                	srai	a4,a4,0x21
     f40:	001ae603          	0x1ae603
     f44:	0500                	addi	s0,sp,640
     f46:	0398                	addi	a4,sp,448
     f48:	27a5                	jal	16b0 <_erodata+0x1570>
     f4a:	0000                	unimp
     f4c:	a305                	j	146c <_erodata+0x132c>
     f4e:	000e4503          	lbu	a0,0(t3) # fffe0000 <_fstack+0xeffd8000>
     f52:	0500                	addi	s0,sp,640
     f54:	03a4                	addi	s1,sp,456
     f56:	0599                	addi	a1,a1,6
     f58:	0000                	unimp
     f5a:	b005                	j	77a <_erodata+0x63a>
     f5c:	00461403          	lh	s0,4(a2)
     f60:	0500                	addi	s0,sp,640
     f62:	03b1                	addi	t2,t2,12
     f64:	000004d3          	fadd.s	fs1,ft0,ft0,rne
     f68:	c005                	beqz	s0,f88 <_erodata+0xe48>
     f6a:	00351903          	lh	s2,3(a0) # 3 <__DYNAMIC+0x3>
     f6e:	0500                	addi	s0,sp,640
     f70:	03c1                	addi	t2,t2,16
     f72:	3e42                	fld	ft8,48(sp)
     f74:	0000                	unimp
     f76:	0400                	addi	s0,sp,512
     f78:	0000                	unimp
     f7a:	0205                	addi	tp,tp,1
     f7c:	00002e93          	slti	t4,zero,0
     f80:	0405                	addi	s0,s0,1
     f82:	00001ecb          	fnmsub.s	ft9,ft0,ft0,ft0,rtz
     f86:	0605                	addi	a2,a2,1
     f88:	0000084f          	fnmadd.s	fa6,ft0,ft0,ft0,rne
     f8c:	0705                	addi	a4,a4,1
     f8e:	48e6                	lw	a7,88(sp)
     f90:	0000                	unimp
     f92:	0905                	addi	s2,s2,1
     f94:	2364                	fld	fs1,192(a4)
     f96:	0000                	unimp
     f98:	0400                	addi	s0,sp,512
     f9a:	0000                	unimp
     f9c:	2605                	jal	12bc <_erodata+0x117c>
     f9e:	46dc                	lw	a5,12(a3)
     fa0:	0000                	unimp
     fa2:	2a05                	jal	10d2 <_erodata+0xf92>
     fa4:	0e80                	addi	s0,sp,848
     fa6:	0000                	unimp
     fa8:	3005                	jal	7c8 <_erodata+0x688>
     faa:	00004feb          	0x4feb
     fae:	3605                	jal	ace <_erodata+0x98e>
     fb0:	4a11                	li	s4,4
     fb2:	0000                	unimp
     fb4:	0400                	addi	s0,sp,512
     fb6:	0000                	unimp
     fb8:	0205                	addi	tp,tp,1
     fba:	491d                	li	s2,7
     fbc:	0000                	unimp
     fbe:	0b05                	addi	s6,s6,1
     fc0:	3c9e                	fld	fs9,480(sp)
     fc2:	0000                	unimp
     fc4:	0c05                	addi	s8,s8,1
     fc6:	00002897          	auipc	a7,0x2
     fca:	1c05                	addi	s8,s8,-31
     fcc:	00002ee3          	0x2ee3
     fd0:	2d05                	jal	1600 <_erodata+0x14c0>
     fd2:	00003533          	snez	a0,zero
     fd6:	3e05                	jal	b06 <_erodata+0x9c6>
     fd8:	360c                	fld	fa1,40(a2)
     fda:	0000                	unimp
     fdc:	3f05                	jal	f0c <_erodata+0xdcc>
     fde:	29a9                	jal	1438 <_erodata+0x12f8>
     fe0:	0000                	unimp
     fe2:	a105                	j	1402 <_erodata+0x12c2>
     fe4:	e201                	bnez	a2,fe4 <_erodata+0xea4>
     fe6:	0500002f          	0x500002f
     fea:	01c2                	slli	gp,gp,0x10
     fec:	0b1f 0000 0400      	0x40000000b1f
     ff2:	0000                	unimp
     ff4:	1305                	addi	t1,t1,-31
     ff6:	00003f33          	snez	t5,zero
     ffa:	1b05                	addi	s6,s6,-31
     ffc:	06d4                	addi	a3,sp,836
     ffe:	0000                	unimp
    1000:	1c05                	addi	s8,s8,-31
    1002:	00002af3          	csrr	s5,ustatus
    1006:	1d05                	addi	s10,s10,-31
    1008:	1b4c                	addi	a1,sp,436
    100a:	0000                	unimp
    100c:	1e05                	addi	t3,t3,-31
    100e:	2d5e                	fld	fs10,464(sp)
    1010:	0000                	unimp
    1012:	1f05                	addi	t5,t5,-31
    1014:	434e                	lw	t1,208(sp)
    1016:	0000                	unimp
    1018:	2005                	jal	1038 <_erodata+0xef8>
    101a:	3869                	jal	8b4 <_erodata+0x774>
    101c:	0000                	unimp
    101e:	2105                	jal	143e <_erodata+0x12fe>
    1020:	2f48                	fld	fa0,152(a4)
    1022:	0000                	unimp
    1024:	2205                	jal	1144 <_erodata+0x1004>
    1026:	000032db          	0x32db
    102a:	2305                	jal	154a <_erodata+0x140a>
    102c:	234a                	fld	ft6,144(sp)
    102e:	0000                	unimp
    1030:	2405                	jal	1250 <_erodata+0x1110>
    1032:	000027bf 22e72505 	0x22e72505000027bf
    103a:	0000                	unimp
    103c:	2605                	jal	135c <_erodata+0x121c>
    103e:	12a6                	slli	t0,t0,0x29
    1040:	0000                	unimp
    1042:	2705                	jal	1762 <_erodata+0x1622>
    1044:	0452                	slli	s0,s0,0x14
    1046:	0000                	unimp
    1048:	2805                	jal	1078 <_erodata+0xf38>
    104a:	13ce                	slli	t2,t2,0x33
    104c:	0000                	unimp
    104e:	2905                	jal	147e <_erodata+0x133e>
    1050:	0482                	c.slli64	s1
    1052:	0000                	unimp
    1054:	2a05                	jal	1184 <_erodata+0x1044>
    1056:	0000365b          	0x365b
    105a:	2b05                	jal	158a <_erodata+0x144a>
    105c:	3ed0                	fld	fa2,184(a3)
    105e:	0000                	unimp
    1060:	2e05                	jal	1390 <_erodata+0x1250>
    1062:	00004e4f          	fnmadd.s	ft8,ft0,ft0,ft0,rmm
    1066:	2f05                	jal	1796 <_erodata+0x1656>
    1068:	349e                	fld	fs1,480(sp)
    106a:	0000                	unimp
    106c:	3005                	jal	88c <_erodata+0x74c>
    106e:	1b78                	addi	a4,sp,444
    1070:	0000                	unimp
    1072:	3105                	jal	c92 <_erodata+0xb52>
    1074:	28ce                	fld	fa7,208(sp)
    1076:	0000                	unimp
    1078:	3205                	jal	998 <_erodata+0x858>
    107a:	2dbe                	fld	fs11,456(sp)
    107c:	0000                	unimp
    107e:	3305                	jal	d9e <_erodata+0xc5e>
    1080:	3480                	fld	fs0,40(s1)
    1082:	0000                	unimp
    1084:	3405                	jal	aa4 <_erodata+0x964>
    1086:	0920                	addi	s0,sp,152
    1088:	0000                	unimp
    108a:	3505                	jal	eaa <_erodata+0xd6a>
    108c:	40e2                	lw	ra,24(sp)
    108e:	0000                	unimp
    1090:	3605                	jal	bb0 <_erodata+0xa70>
    1092:	00004827          	fsq	ft0,16(zero) # 10 <__DYNAMIC+0x10>
    1096:	3705                	jal	fb6 <_erodata+0xe76>
    1098:	0000146b          	0x146b
    109c:	3805                	jal	8cc <_erodata+0x78c>
    109e:	144c                	addi	a1,sp,548
    10a0:	0000                	unimp
    10a2:	3905                	jal	cd2 <_erodata+0xb92>
    10a4:	4405                	li	s0,1
    10a6:	0000                	unimp
    10a8:	4005                	c.li	zero,1
    10aa:	0000192f          	0x192f
	...
